; ModuleID = 'main.cbc7ddee-cgu.0'
source_filename = "main.cbc7ddee-cgu.0"
target datalayout = "e-m:o-p270:32:32-p271:32:32-p272:64:64-i64:64-f80:128-n8:16:32:64-S128"
target triple = "x86_64-apple-macosx10.7.0"

%"core::result::Result<(core::alloc::layout::Layout, usize), core::alloc::layout::LayoutError>" = type { [1 x i64], i64, [1 x i64] }
%"core::result::Result<(core::alloc::layout::Layout, usize), core::alloc::layout::LayoutError>::Err" = type { %"core::alloc::layout::LayoutError" }
%"core::alloc::layout::LayoutError" = type {}
%"core::result::Result<core::ptr::non_null::NonNull<[u8]>, core::alloc::AllocError>::Err" = type { %"core::alloc::AllocError" }
%"core::alloc::AllocError" = type {}
%"core::result::Result<core::alloc::layout::Layout, core::alloc::layout::LayoutError>::Err" = type { %"core::alloc::layout::LayoutError" }
%"core::fmt::Formatter" = type { { i64, i64 }, { i64, i64 }, { {}*, [3 x i64]* }, i32, i32, i8, [7 x i8] }
%"core::fmt::Opaque" = type {}
%"alloc::string::String" = type { %"alloc::vec::Vec<u8>" }
%"alloc::vec::Vec<u8>" = type { { i8*, i64 }, i64 }
%"core::fmt::Arguments" = type { { [0 x { [0 x i8]*, i64 }]*, i64 }, { i64*, i64 }, { [0 x { i8*, i64* }]*, i64 } }
%"core::panic::location::Location" = type { { [0 x i8]*, i64 }, i32, i32 }
%"core::option::Option<usize>::Some" = type { [1 x i64], i64 }
%"core::ptr::metadata::PtrRepr<[u8]>" = type { [2 x i64] }
%"core::ops::control_flow::ControlFlow<core::result::Result<core::convert::Infallible, core::alloc::layout::LayoutError>, (core::alloc::layout::Layout, usize)>" = type { [1 x i64], i64, [1 x i64] }
%"core::ops::control_flow::ControlFlow<core::result::Result<core::convert::Infallible, core::alloc::layout::LayoutError>, (core::alloc::layout::Layout, usize)>::Continue" = type { { { i64, i64 }, i64 } }
%"core::ops::control_flow::ControlFlow<core::result::Result<core::convert::Infallible, core::alloc::layout::LayoutError>, usize>::Continue" = type { [1 x i64], i64 }
%"core::result::Result<(core::alloc::layout::Layout, usize), core::alloc::layout::LayoutError>::Ok" = type { { { i64, i64 }, i64 } }
%"core::result::Result<usize, core::alloc::layout::LayoutError>::Err" = type { [8 x i8], %"core::alloc::layout::LayoutError" }
%"core::result::Result<usize, core::alloc::layout::LayoutError>::Ok" = type { [1 x i64], i64 }
%"core::result::Result<core::ptr::non_null::NonNull<u8>, core::alloc::AllocError>::Err" = type { %"core::alloc::AllocError" }
%"alloc::alloc::Global" = type {}
%"core::result::Result<(), alloc::collections::TryReserveError>" = type { i64, [2 x i64] }
%"core::result::Result<(), alloc::collections::TryReserveError>::Err" = type { [1 x i64], { i64, i64 } }
%"core::option::Option<(core::ptr::non_null::NonNull<u8>, core::alloc::layout::Layout)>" = type { {}*, [2 x i64] }
%"core::option::Option<(core::ptr::non_null::NonNull<u8>, core::alloc::layout::Layout)>::Some" = type { { i8*, { i64, i64 } } }
%"core::result::Result<core::convert::Infallible, core::alloc::layout::LayoutError>::Err" = type { %"core::alloc::layout::LayoutError" }
%"core::ops::control_flow::ControlFlow<core::result::Result<core::convert::Infallible, core::alloc::layout::LayoutError>, (core::alloc::layout::Layout, usize)>::Break" = type { %"core::result::Result<core::convert::Infallible, core::alloc::layout::LayoutError>::Err" }
%"core::result::Result<core::convert::Infallible, core::alloc::AllocError>::Err" = type { %"core::alloc::AllocError" }
%"core::ops::control_flow::ControlFlow<core::result::Result<core::convert::Infallible, core::alloc::AllocError>, core::ptr::non_null::NonNull<u8>>::Break" = type { %"core::result::Result<core::convert::Infallible, core::alloc::AllocError>::Err" }
%"core::ops::control_flow::ControlFlow<core::result::Result<core::convert::Infallible, core::alloc::layout::LayoutError>, usize>::Break" = type { [8 x i8], %"core::result::Result<core::convert::Infallible, core::alloc::layout::LayoutError>::Err" }
%"unwind::libunwind::_Unwind_Exception" = type { i64, void (i32, %"unwind::libunwind::_Unwind_Exception"*)*, [6 x i64] }
%"unwind::libunwind::_Unwind_Context" = type { [0 x i8] }

@vtable.0 = private unnamed_addr constant <{ i8*, [16 x i8], i8*, i8*, i8*, [0 x i8] }> <{ i8* bitcast (void (i64**)* @"_ZN4core3ptr85drop_in_place$LT$std..rt..lang_start$LT$$LP$$RP$$GT$..$u7b$$u7b$closure$u7d$$u7d$$GT$17h69e877ad81ce4da0E" to i8*), [16 x i8] c"\08\00\00\00\00\00\00\00\08\00\00\00\00\00\00\00", i8* bitcast (i32 (i64**)* @"_ZN4core3ops8function6FnOnce40call_once$u7b$$u7b$vtable.shim$u7d$$u7d$17he1d6ed8f8bab3f7fE" to i8*), i8* bitcast (i32 (i64**)* @"_ZN3std2rt10lang_start28_$u7b$$u7b$closure$u7d$$u7d$17h2415c6b9c49dae65E" to i8*), i8* bitcast (i32 (i64**)* @"_ZN3std2rt10lang_start28_$u7b$$u7b$closure$u7d$$u7d$17h2415c6b9c49dae65E" to i8*), [0 x i8] zeroinitializer }>, align 8
@alloc62 = private unnamed_addr constant <{ [12 x i8] }> <{ [12 x i8] c"invalid args" }>, align 1
@alloc63 = private unnamed_addr constant <{ [75 x i8] }> <{ [75 x i8] c"/rustc/f1edd0429582dd29cccacaf50fd134b05593bd9c/library/core/src/fmt/mod.rs" }>, align 1
@alloc64 = private unnamed_addr constant <{ i8*, [16 x i8] }> <{ i8* getelementptr inbounds (<{ [75 x i8] }>, <{ [75 x i8] }>* @alloc63, i32 0, i32 0, i32 0), [16 x i8] c"K\00\00\00\00\00\00\00k\01\00\00\0D\00\00\00" }>, align 8
@alloc65 = private unnamed_addr constant <{ [80 x i8] }> <{ [80 x i8] c"/rustc/f1edd0429582dd29cccacaf50fd134b05593bd9c/library/core/src/alloc/layout.rs" }>, align 1
@alloc66 = private unnamed_addr constant <{ i8*, [16 x i8] }> <{ i8* getelementptr inbounds (<{ [80 x i8] }>, <{ [80 x i8] }>* @alloc65, i32 0, i32 0, i32 0), [16 x i8] c"P\00\00\00\00\00\00\00\18\01\00\009\00\00\00" }>, align 8
@alloc67 = private unnamed_addr constant <{ [43 x i8] }> <{ [43 x i8] c"called `Result::unwrap()` on an `Err` value" }>, align 1
@vtable.1 = private unnamed_addr constant <{ i8*, [16 x i8], i8*, [0 x i8] }> <{ i8* bitcast (void (%"core::alloc::layout::LayoutError"*)* @"_ZN4core3ptr53drop_in_place$LT$core..alloc..layout..LayoutError$GT$17h93686b9dafd052b9E" to i8*), [16 x i8] c"\00\00\00\00\00\00\00\00\01\00\00\00\00\00\00\00", i8* bitcast (i1 (%"core::alloc::layout::LayoutError"*, %"core::fmt::Formatter"*)* @"_ZN69_$LT$core..alloc..layout..LayoutError$u20$as$u20$core..fmt..Debug$GT$3fmt17h29a3b85aeffb17b6E" to i8*), [0 x i8] zeroinitializer }>, align 8
@alloc71 = private unnamed_addr constant <{ [76 x i8] }> <{ [76 x i8] c"/rustc/f1edd0429582dd29cccacaf50fd134b05593bd9c/library/alloc/src/raw_vec.rs" }>, align 1
@alloc72 = private unnamed_addr constant <{ i8*, [16 x i8] }> <{ i8* getelementptr inbounds (<{ [76 x i8] }>, <{ [76 x i8] }>* @alloc71, i32 0, i32 0, i32 0), [16 x i8] c"L\00\00\00\00\00\00\00\9A\01\00\00\09\00\00\00" }>, align 8
@str.2 = internal constant [25 x i8] c"attempt to divide by zero"
@alloc2 = private unnamed_addr constant <{ [5 x i8] }> <{ [5 x i8] c"int: " }>, align 1
@alloc16 = private unnamed_addr constant <{ [1 x i8] }> <{ [1 x i8] c"\0A" }>, align 1
@alloc3 = private unnamed_addr constant <{ i8*, [8 x i8], i8*, [8 x i8] }> <{ i8* getelementptr inbounds (<{ [5 x i8] }>, <{ [5 x i8] }>* @alloc2, i32 0, i32 0, i32 0), [8 x i8] c"\05\00\00\00\00\00\00\00", i8* getelementptr inbounds (<{ [1 x i8] }>, <{ [1 x i8] }>* @alloc16, i32 0, i32 0, i32 0), [8 x i8] c"\01\00\00\00\00\00\00\00" }>, align 8
@alloc8 = private unnamed_addr constant <{ [5 x i8] }> <{ [5 x i8] c"str: " }>, align 1
@alloc9 = private unnamed_addr constant <{ i8*, [8 x i8], i8*, [8 x i8] }> <{ i8* getelementptr inbounds (<{ [5 x i8] }>, <{ [5 x i8] }>* @alloc8, i32 0, i32 0, i32 0), [8 x i8] c"\05\00\00\00\00\00\00\00", i8* getelementptr inbounds (<{ [1 x i8] }>, <{ [1 x i8] }>* @alloc16, i32 0, i32 0, i32 0), [8 x i8] c"\01\00\00\00\00\00\00\00" }>, align 8
@alloc14 = private unnamed_addr constant <{ [8 x i8] }> <{ [8 x i8] c"struct: " }>, align 1
@alloc15 = private unnamed_addr constant <{ i8*, [8 x i8], i8*, [8 x i8] }> <{ i8* getelementptr inbounds (<{ [8 x i8] }>, <{ [8 x i8] }>* @alloc14, i32 0, i32 0, i32 0), [8 x i8] c"\08\00\00\00\00\00\00\00", i8* getelementptr inbounds (<{ [1 x i8] }>, <{ [1 x i8] }>* @alloc16, i32 0, i32 0, i32 0), [8 x i8] c"\01\00\00\00\00\00\00\00" }>, align 8
@alloc73 = private unnamed_addr constant <{ [13 x i8] }> <{ [13 x i8] c"Hello, World!" }>, align 1
@alloc31 = private unnamed_addr constant <{ [12 x i8] }> <{ [12 x i8] c"MyStruct(x: " }>, align 1
@alloc33 = private unnamed_addr constant <{ [1 x i8] }> <{ [1 x i8] c")" }>, align 1
@alloc32 = private unnamed_addr constant <{ i8*, [8 x i8], i8*, [8 x i8] }> <{ i8* getelementptr inbounds (<{ [12 x i8] }>, <{ [12 x i8] }>* @alloc31, i32 0, i32 0, i32 0), [8 x i8] c"\0C\00\00\00\00\00\00\00", i8* getelementptr inbounds (<{ [1 x i8] }>, <{ [1 x i8] }>* @alloc33, i32 0, i32 0, i32 0), [8 x i8] c"\01\00\00\00\00\00\00\00" }>, align 8

; <core::ptr::non_null::NonNull<T> as core::convert::From<core::ptr::unique::Unique<T>>>::from
; Function Attrs: inlinehint uwtable
define internal nonnull i8* @"_ZN119_$LT$core..ptr..non_null..NonNull$LT$T$GT$$u20$as$u20$core..convert..From$LT$core..ptr..unique..Unique$LT$T$GT$$GT$$GT$4from17hd889341682a330a8E"(i8* nonnull %unique) unnamed_addr #0 {
start:
; call core::ptr::unique::Unique<T>::as_ptr
  %_2 = call i8* @"_ZN4core3ptr6unique15Unique$LT$T$GT$6as_ptr17h51f47b6a7140a787E"(i8* nonnull %unique)
  br label %bb1

bb1:                                              ; preds = %start
; call core::ptr::non_null::NonNull<T>::new_unchecked
  %0 = call nonnull i8* @"_ZN4core3ptr8non_null16NonNull$LT$T$GT$13new_unchecked17h52016c20d23e96b9E"(i8* %_2)
  br label %bb2

bb2:                                              ; preds = %bb1
  ret i8* %0
}

; <alloc::collections::TryReserveError as core::convert::From<alloc::collections::TryReserveErrorKind>>::from
; Function Attrs: inlinehint uwtable
define internal { i64, i64 } @"_ZN122_$LT$alloc..collections..TryReserveError$u20$as$u20$core..convert..From$LT$alloc..collections..TryReserveErrorKind$GT$$GT$4from17hade20cf2a83a440dE"(i64 %kind.0, i64 %kind.1) unnamed_addr #0 {
start:
  %0 = alloca { i64, i64 }, align 8
  %1 = getelementptr inbounds { i64, i64 }, { i64, i64 }* %0, i32 0, i32 0
  store i64 %kind.0, i64* %1, align 8
  %2 = getelementptr inbounds { i64, i64 }, { i64, i64 }* %0, i32 0, i32 1
  store i64 %kind.1, i64* %2, align 8
  %3 = getelementptr inbounds { i64, i64 }, { i64, i64 }* %0, i32 0, i32 0
  %4 = load i64, i64* %3, align 8
  %5 = getelementptr inbounds { i64, i64 }, { i64, i64 }* %0, i32 0, i32 1
  %6 = load i64, i64* %5, align 8
  %7 = insertvalue { i64, i64 } undef, i64 %4, 0
  %8 = insertvalue { i64, i64 } %7, i64 %6, 1
  ret { i64, i64 } %8
}

; <core::result::Result<T,F> as core::ops::try_trait::FromResidual<core::result::Result<core::convert::Infallible,E>>>::from_residual
; Function Attrs: inlinehint uwtable
define internal void @"_ZN153_$LT$core..result..Result$LT$T$C$F$GT$$u20$as$u20$core..ops..try_trait..FromResidual$LT$core..result..Result$LT$core..convert..Infallible$C$E$GT$$GT$$GT$13from_residual17h1b76486b7b0f7a22E"(%"core::result::Result<(core::alloc::layout::Layout, usize), core::alloc::layout::LayoutError>"* noalias nocapture sret(%"core::result::Result<(core::alloc::layout::Layout, usize), core::alloc::layout::LayoutError>") dereferenceable(24) %0) unnamed_addr #0 {
start:
; call <T as core::convert::From<T>>::from
  call void @"_ZN50_$LT$T$u20$as$u20$core..convert..From$LT$T$GT$$GT$4from17hf929ce1ada8956baE"()
  br label %bb1

bb1:                                              ; preds = %start
  %1 = bitcast %"core::result::Result<(core::alloc::layout::Layout, usize), core::alloc::layout::LayoutError>"* %0 to %"core::result::Result<(core::alloc::layout::Layout, usize), core::alloc::layout::LayoutError>::Err"*
  %2 = bitcast %"core::result::Result<(core::alloc::layout::Layout, usize), core::alloc::layout::LayoutError>::Err"* %1 to %"core::alloc::layout::LayoutError"*
  %3 = getelementptr inbounds %"core::result::Result<(core::alloc::layout::Layout, usize), core::alloc::layout::LayoutError>", %"core::result::Result<(core::alloc::layout::Layout, usize), core::alloc::layout::LayoutError>"* %0, i32 0, i32 1
  store i64 0, i64* %3, align 8
  ret void
}

; <core::result::Result<T,F> as core::ops::try_trait::FromResidual<core::result::Result<core::convert::Infallible,E>>>::from_residual
; Function Attrs: inlinehint uwtable
define internal { i8*, i64 } @"_ZN153_$LT$core..result..Result$LT$T$C$F$GT$$u20$as$u20$core..ops..try_trait..FromResidual$LT$core..result..Result$LT$core..convert..Infallible$C$E$GT$$GT$$GT$13from_residual17h1cef078034b81983E"() unnamed_addr #0 {
start:
  %0 = alloca { i8*, i64 }, align 8
; call <T as core::convert::From<T>>::from
  call void @"_ZN50_$LT$T$u20$as$u20$core..convert..From$LT$T$GT$$GT$4from17h1ab7da4497b97d65E"()
  br label %bb1

bb1:                                              ; preds = %start
  %1 = bitcast { i8*, i64 }* %0 to %"core::result::Result<core::ptr::non_null::NonNull<[u8]>, core::alloc::AllocError>::Err"*
  %2 = bitcast %"core::result::Result<core::ptr::non_null::NonNull<[u8]>, core::alloc::AllocError>::Err"* %1 to %"core::alloc::AllocError"*
  %3 = bitcast { i8*, i64 }* %0 to {}**
  store {}* null, {}** %3, align 8
  %4 = getelementptr inbounds { i8*, i64 }, { i8*, i64 }* %0, i32 0, i32 0
  %5 = load i8*, i8** %4, align 8
  %6 = getelementptr inbounds { i8*, i64 }, { i8*, i64 }* %0, i32 0, i32 1
  %7 = load i64, i64* %6, align 8
  %8 = insertvalue { i8*, i64 } undef, i8* %5, 0
  %9 = insertvalue { i8*, i64 } %8, i64 %7, 1
  ret { i8*, i64 } %9
}

; <core::result::Result<T,F> as core::ops::try_trait::FromResidual<core::result::Result<core::convert::Infallible,E>>>::from_residual
; Function Attrs: inlinehint uwtable
define internal { i64, i64 } @"_ZN153_$LT$core..result..Result$LT$T$C$F$GT$$u20$as$u20$core..ops..try_trait..FromResidual$LT$core..result..Result$LT$core..convert..Infallible$C$E$GT$$GT$$GT$13from_residual17h6aac416cda15d5c1E"() unnamed_addr #0 {
start:
  %0 = alloca { i64, i64 }, align 8
; call <T as core::convert::From<T>>::from
  call void @"_ZN50_$LT$T$u20$as$u20$core..convert..From$LT$T$GT$$GT$4from17hf929ce1ada8956baE"()
  br label %bb1

bb1:                                              ; preds = %start
  %1 = bitcast { i64, i64 }* %0 to %"core::result::Result<core::alloc::layout::Layout, core::alloc::layout::LayoutError>::Err"*
  %2 = bitcast %"core::result::Result<core::alloc::layout::Layout, core::alloc::layout::LayoutError>::Err"* %1 to %"core::alloc::layout::LayoutError"*
  %3 = getelementptr inbounds { i64, i64 }, { i64, i64 }* %0, i32 0, i32 1
  store i64 0, i64* %3, align 8
  %4 = getelementptr inbounds { i64, i64 }, { i64, i64 }* %0, i32 0, i32 0
  %5 = load i64, i64* %4, align 8
  %6 = getelementptr inbounds { i64, i64 }, { i64, i64 }* %0, i32 0, i32 1
  %7 = load i64, i64* %6, align 8
  %8 = insertvalue { i64, i64 } undef, i64 %5, 0
  %9 = insertvalue { i64, i64 } %8, i64 %7, 1
  ret { i64, i64 } %9
}

; std::sys_common::backtrace::__rust_begin_short_backtrace
; Function Attrs: noinline uwtable
define internal void @_ZN3std10sys_common9backtrace28__rust_begin_short_backtrace17ha8b2bace0462bd00E(void ()* nonnull %f) unnamed_addr #1 personality i32 (i32, i32, i64, %"unwind::libunwind::_Unwind_Exception"*, %"unwind::libunwind::_Unwind_Context"*)* @rust_eh_personality {
start:
  %0 = alloca { i8*, i32 }, align 8
; call core::ops::function::FnOnce::call_once
  call void @_ZN4core3ops8function6FnOnce9call_once17hce4b67aefbbb72c8E(void ()* nonnull %f)
  br label %bb1

bb1:                                              ; preds = %start
; invoke core::hint::black_box
  invoke void @_ZN4core4hint9black_box17h22ca5af108b7f6dbE()
          to label %bb2 unwind label %cleanup

bb2:                                              ; preds = %bb1
  ret void

bb3:                                              ; preds = %cleanup
  br label %bb4

cleanup:                                          ; preds = %bb1
  %1 = landingpad { i8*, i32 }
          cleanup
  %2 = extractvalue { i8*, i32 } %1, 0
  %3 = extractvalue { i8*, i32 } %1, 1
  %4 = getelementptr inbounds { i8*, i32 }, { i8*, i32 }* %0, i32 0, i32 0
  store i8* %2, i8** %4, align 8
  %5 = getelementptr inbounds { i8*, i32 }, { i8*, i32 }* %0, i32 0, i32 1
  store i32 %3, i32* %5, align 8
  br label %bb3

bb4:                                              ; preds = %bb3
  %6 = bitcast { i8*, i32 }* %0 to i8**
  %7 = load i8*, i8** %6, align 8
  %8 = getelementptr inbounds { i8*, i32 }, { i8*, i32 }* %0, i32 0, i32 1
  %9 = load i32, i32* %8, align 8
  %10 = insertvalue { i8*, i32 } undef, i8* %7, 0
  %11 = insertvalue { i8*, i32 } %10, i32 %9, 1
  resume { i8*, i32 } %11
}

; std::rt::lang_start
; Function Attrs: uwtable
define hidden i64 @_ZN3std2rt10lang_start17hf5756c142256cc45E(void ()* nonnull %main, i64 %argc, i8** %argv) unnamed_addr #2 {
start:
  %_8 = alloca i64*, align 8
  %_4 = alloca i64, align 8
  %0 = bitcast i64** %_8 to void ()**
  store void ()* %main, void ()** %0, align 8
  %_5.0 = bitcast i64** %_8 to {}*
; call std::rt::lang_start_internal
  %1 = call i64 @_ZN3std2rt19lang_start_internal17h59ad95b3bebc83b2E({}* nonnull align 1 %_5.0, [3 x i64]* align 8 dereferenceable(24) bitcast (<{ i8*, [16 x i8], i8*, i8*, i8*, [0 x i8] }>* @vtable.0 to [3 x i64]*), i64 %argc, i8** %argv)
  store i64 %1, i64* %_4, align 8
  br label %bb1

bb1:                                              ; preds = %start
  %v = load i64, i64* %_4, align 8
  ret i64 %v
}

; std::rt::lang_start::{{closure}}
; Function Attrs: inlinehint uwtable
define internal i32 @"_ZN3std2rt10lang_start28_$u7b$$u7b$closure$u7d$$u7d$17h2415c6b9c49dae65E"(i64** align 8 dereferenceable(8) %_1) unnamed_addr #0 {
start:
  %0 = bitcast i64** %_1 to void ()**
  %_3 = load void ()*, void ()** %0, align 8, !nonnull !2
; call std::sys_common::backtrace::__rust_begin_short_backtrace
  call void @_ZN3std10sys_common9backtrace28__rust_begin_short_backtrace17ha8b2bace0462bd00E(void ()* nonnull %_3)
  br label %bb1

bb1:                                              ; preds = %start
; call <() as std::process::Termination>::report
  %1 = call i32 @"_ZN54_$LT$$LP$$RP$$u20$as$u20$std..process..Termination$GT$6report17h06b5be6904cb9193E"()
  br label %bb2

bb2:                                              ; preds = %bb1
  ret i32 %1
}

; std::sys::unix::process::process_common::ExitCode::as_i32
; Function Attrs: inlinehint uwtable
define internal i32 @_ZN3std3sys4unix7process14process_common8ExitCode6as_i3217h10be1facc40ea606E(i8* align 1 dereferenceable(1) %self) unnamed_addr #0 {
start:
  %_2 = load i8, i8* %self, align 1
  %0 = zext i8 %_2 to i32
  ret i32 %0
}

; core::intrinsics::copy_nonoverlapping
; Function Attrs: inlinehint uwtable
define internal void @_ZN4core10intrinsics19copy_nonoverlapping17h2da48f811d0879d4E(i8* %src, i8* %dst, i64 %count) unnamed_addr #0 {
start:
  %0 = mul i64 %count, 1
  call void @llvm.memcpy.p0i8.p0i8.i64(i8* align 1 %dst, i8* align 1 %src, i64 %0, i1 false)
  ret void
}

; core::fmt::ArgumentV1::new
; Function Attrs: uwtable
define internal { i8*, i64* } @_ZN4core3fmt10ArgumentV13new17h4712cfcff67a7cdaE(i32* align 4 dereferenceable(4) %x, i1 (i32*, %"core::fmt::Formatter"*)* nonnull %f) unnamed_addr #2 {
start:
  %0 = alloca %"core::fmt::Opaque"*, align 8
  %1 = alloca i1 (%"core::fmt::Opaque"*, %"core::fmt::Formatter"*)*, align 8
  %2 = alloca { i8*, i64* }, align 8
  %3 = bitcast i1 (i32*, %"core::fmt::Formatter"*)* %f to i1 (%"core::fmt::Opaque"*, %"core::fmt::Formatter"*)*
  store i1 (%"core::fmt::Opaque"*, %"core::fmt::Formatter"*)* %3, i1 (%"core::fmt::Opaque"*, %"core::fmt::Formatter"*)** %1, align 8
  %_3 = load i1 (%"core::fmt::Opaque"*, %"core::fmt::Formatter"*)*, i1 (%"core::fmt::Opaque"*, %"core::fmt::Formatter"*)** %1, align 8, !nonnull !2
  br label %bb1

bb1:                                              ; preds = %start
  %4 = bitcast i32* %x to %"core::fmt::Opaque"*
  store %"core::fmt::Opaque"* %4, %"core::fmt::Opaque"** %0, align 8
  %_5 = load %"core::fmt::Opaque"*, %"core::fmt::Opaque"** %0, align 8, !nonnull !2
  br label %bb2

bb2:                                              ; preds = %bb1
  %5 = bitcast { i8*, i64* }* %2 to %"core::fmt::Opaque"**
  store %"core::fmt::Opaque"* %_5, %"core::fmt::Opaque"** %5, align 8
  %6 = getelementptr inbounds { i8*, i64* }, { i8*, i64* }* %2, i32 0, i32 1
  %7 = bitcast i64** %6 to i1 (%"core::fmt::Opaque"*, %"core::fmt::Formatter"*)**
  store i1 (%"core::fmt::Opaque"*, %"core::fmt::Formatter"*)* %_3, i1 (%"core::fmt::Opaque"*, %"core::fmt::Formatter"*)** %7, align 8
  %8 = getelementptr inbounds { i8*, i64* }, { i8*, i64* }* %2, i32 0, i32 0
  %9 = load i8*, i8** %8, align 8, !nonnull !2
  %10 = getelementptr inbounds { i8*, i64* }, { i8*, i64* }* %2, i32 0, i32 1
  %11 = load i64*, i64** %10, align 8, !nonnull !2
  %12 = insertvalue { i8*, i64* } undef, i8* %9, 0
  %13 = insertvalue { i8*, i64* } %12, i64* %11, 1
  ret { i8*, i64* } %13
}

; core::fmt::ArgumentV1::new
; Function Attrs: uwtable
define internal { i8*, i64* } @_ZN4core3fmt10ArgumentV13new17h7b184a0dee61b13bE(%"alloc::string::String"* align 8 dereferenceable(24) %x, i1 (%"alloc::string::String"*, %"core::fmt::Formatter"*)* nonnull %f) unnamed_addr #2 {
start:
  %0 = alloca %"core::fmt::Opaque"*, align 8
  %1 = alloca i1 (%"core::fmt::Opaque"*, %"core::fmt::Formatter"*)*, align 8
  %2 = alloca { i8*, i64* }, align 8
  %3 = bitcast i1 (%"alloc::string::String"*, %"core::fmt::Formatter"*)* %f to i1 (%"core::fmt::Opaque"*, %"core::fmt::Formatter"*)*
  store i1 (%"core::fmt::Opaque"*, %"core::fmt::Formatter"*)* %3, i1 (%"core::fmt::Opaque"*, %"core::fmt::Formatter"*)** %1, align 8
  %_3 = load i1 (%"core::fmt::Opaque"*, %"core::fmt::Formatter"*)*, i1 (%"core::fmt::Opaque"*, %"core::fmt::Formatter"*)** %1, align 8, !nonnull !2
  br label %bb1

bb1:                                              ; preds = %start
  %4 = bitcast %"alloc::string::String"* %x to %"core::fmt::Opaque"*
  store %"core::fmt::Opaque"* %4, %"core::fmt::Opaque"** %0, align 8
  %_5 = load %"core::fmt::Opaque"*, %"core::fmt::Opaque"** %0, align 8, !nonnull !2
  br label %bb2

bb2:                                              ; preds = %bb1
  %5 = bitcast { i8*, i64* }* %2 to %"core::fmt::Opaque"**
  store %"core::fmt::Opaque"* %_5, %"core::fmt::Opaque"** %5, align 8
  %6 = getelementptr inbounds { i8*, i64* }, { i8*, i64* }* %2, i32 0, i32 1
  %7 = bitcast i64** %6 to i1 (%"core::fmt::Opaque"*, %"core::fmt::Formatter"*)**
  store i1 (%"core::fmt::Opaque"*, %"core::fmt::Formatter"*)* %_3, i1 (%"core::fmt::Opaque"*, %"core::fmt::Formatter"*)** %7, align 8
  %8 = getelementptr inbounds { i8*, i64* }, { i8*, i64* }* %2, i32 0, i32 0
  %9 = load i8*, i8** %8, align 8, !nonnull !2
  %10 = getelementptr inbounds { i8*, i64* }, { i8*, i64* }* %2, i32 0, i32 1
  %11 = load i64*, i64** %10, align 8, !nonnull !2
  %12 = insertvalue { i8*, i64* } undef, i8* %9, 0
  %13 = insertvalue { i8*, i64* } %12, i64* %11, 1
  ret { i8*, i64* } %13
}

; core::fmt::ArgumentV1::new
; Function Attrs: uwtable
define internal { i8*, i64* } @_ZN4core3fmt10ArgumentV13new17hf6a4232ad7970220E(i32* align 4 dereferenceable(4) %x, i1 (i32*, %"core::fmt::Formatter"*)* nonnull %f) unnamed_addr #2 {
start:
  %0 = alloca %"core::fmt::Opaque"*, align 8
  %1 = alloca i1 (%"core::fmt::Opaque"*, %"core::fmt::Formatter"*)*, align 8
  %2 = alloca { i8*, i64* }, align 8
  %3 = bitcast i1 (i32*, %"core::fmt::Formatter"*)* %f to i1 (%"core::fmt::Opaque"*, %"core::fmt::Formatter"*)*
  store i1 (%"core::fmt::Opaque"*, %"core::fmt::Formatter"*)* %3, i1 (%"core::fmt::Opaque"*, %"core::fmt::Formatter"*)** %1, align 8
  %_3 = load i1 (%"core::fmt::Opaque"*, %"core::fmt::Formatter"*)*, i1 (%"core::fmt::Opaque"*, %"core::fmt::Formatter"*)** %1, align 8, !nonnull !2
  br label %bb1

bb1:                                              ; preds = %start
  %4 = bitcast i32* %x to %"core::fmt::Opaque"*
  store %"core::fmt::Opaque"* %4, %"core::fmt::Opaque"** %0, align 8
  %_5 = load %"core::fmt::Opaque"*, %"core::fmt::Opaque"** %0, align 8, !nonnull !2
  br label %bb2

bb2:                                              ; preds = %bb1
  %5 = bitcast { i8*, i64* }* %2 to %"core::fmt::Opaque"**
  store %"core::fmt::Opaque"* %_5, %"core::fmt::Opaque"** %5, align 8
  %6 = getelementptr inbounds { i8*, i64* }, { i8*, i64* }* %2, i32 0, i32 1
  %7 = bitcast i64** %6 to i1 (%"core::fmt::Opaque"*, %"core::fmt::Formatter"*)**
  store i1 (%"core::fmt::Opaque"*, %"core::fmt::Formatter"*)* %_3, i1 (%"core::fmt::Opaque"*, %"core::fmt::Formatter"*)** %7, align 8
  %8 = getelementptr inbounds { i8*, i64* }, { i8*, i64* }* %2, i32 0, i32 0
  %9 = load i8*, i8** %8, align 8, !nonnull !2
  %10 = getelementptr inbounds { i8*, i64* }, { i8*, i64* }* %2, i32 0, i32 1
  %11 = load i64*, i64** %10, align 8, !nonnull !2
  %12 = insertvalue { i8*, i64* } undef, i8* %9, 0
  %13 = insertvalue { i8*, i64* } %12, i64* %11, 1
  ret { i8*, i64* } %13
}

; core::fmt::Arguments::new_v1
; Function Attrs: inlinehint uwtable
define internal void @_ZN4core3fmt9Arguments6new_v117hde53115203193b6dE(%"core::fmt::Arguments"* noalias nocapture sret(%"core::fmt::Arguments") dereferenceable(48) %0, [0 x { [0 x i8]*, i64 }]* nonnull align 8 %pieces.0, i64 %pieces.1, [0 x { i8*, i64* }]* nonnull align 8 %args.0, i64 %args.1) unnamed_addr #0 {
start:
  %_16 = alloca { i64*, i64 }, align 8
  %_3 = alloca i8, align 1
  %_4 = icmp ult i64 %pieces.1, %args.1
  br i1 %_4, label %bb1, label %bb2

bb2:                                              ; preds = %start
  %_12 = add i64 %args.1, 1
  %_9 = icmp ugt i64 %pieces.1, %_12
  %1 = zext i1 %_9 to i8
  store i8 %1, i8* %_3, align 1
  br label %bb3

bb1:                                              ; preds = %start
  store i8 1, i8* %_3, align 1
  br label %bb3

bb3:                                              ; preds = %bb2, %bb1
  %2 = load i8, i8* %_3, align 1, !range !3
  %3 = trunc i8 %2 to i1
  br i1 %3, label %bb4, label %bb5

bb5:                                              ; preds = %bb3
  %4 = bitcast { i64*, i64 }* %_16 to {}**
  store {}* null, {}** %4, align 8
  %5 = bitcast %"core::fmt::Arguments"* %0 to { [0 x { [0 x i8]*, i64 }]*, i64 }*
  %6 = getelementptr inbounds { [0 x { [0 x i8]*, i64 }]*, i64 }, { [0 x { [0 x i8]*, i64 }]*, i64 }* %5, i32 0, i32 0
  store [0 x { [0 x i8]*, i64 }]* %pieces.0, [0 x { [0 x i8]*, i64 }]** %6, align 8
  %7 = getelementptr inbounds { [0 x { [0 x i8]*, i64 }]*, i64 }, { [0 x { [0 x i8]*, i64 }]*, i64 }* %5, i32 0, i32 1
  store i64 %pieces.1, i64* %7, align 8
  %8 = getelementptr inbounds %"core::fmt::Arguments", %"core::fmt::Arguments"* %0, i32 0, i32 1
  %9 = getelementptr inbounds { i64*, i64 }, { i64*, i64 }* %_16, i32 0, i32 0
  %10 = load i64*, i64** %9, align 8
  %11 = getelementptr inbounds { i64*, i64 }, { i64*, i64 }* %_16, i32 0, i32 1
  %12 = load i64, i64* %11, align 8
  %13 = getelementptr inbounds { i64*, i64 }, { i64*, i64 }* %8, i32 0, i32 0
  store i64* %10, i64** %13, align 8
  %14 = getelementptr inbounds { i64*, i64 }, { i64*, i64 }* %8, i32 0, i32 1
  store i64 %12, i64* %14, align 8
  %15 = getelementptr inbounds %"core::fmt::Arguments", %"core::fmt::Arguments"* %0, i32 0, i32 2
  %16 = getelementptr inbounds { [0 x { i8*, i64* }]*, i64 }, { [0 x { i8*, i64* }]*, i64 }* %15, i32 0, i32 0
  store [0 x { i8*, i64* }]* %args.0, [0 x { i8*, i64* }]** %16, align 8
  %17 = getelementptr inbounds { [0 x { i8*, i64* }]*, i64 }, { [0 x { i8*, i64* }]*, i64 }* %15, i32 0, i32 1
  store i64 %args.1, i64* %17, align 8
  ret void

bb4:                                              ; preds = %bb3
; call core::panicking::panic
  call void @_ZN4core9panicking5panic17h709f8bbcee9c47c1E([0 x i8]* nonnull align 1 bitcast (<{ [12 x i8] }>* @alloc62 to [0 x i8]*), i64 12, %"core::panic::location::Location"* align 8 dereferenceable(24) bitcast (<{ i8*, [16 x i8] }>* @alloc64 to %"core::panic::location::Location"*)) #12
  unreachable
}

; core::num::<impl usize>::checked_mul
; Function Attrs: inlinehint uwtable
define internal { i64, i64 } @"_ZN4core3num23_$LT$impl$u20$usize$GT$11checked_mul17h59e8fffe22192b91E"(i64 %self, i64 %rhs) unnamed_addr #0 {
start:
  %0 = alloca { i64, i8 }, align 8
  %1 = alloca { i64, i8 }, align 8
  %2 = alloca i8, align 1
  %3 = alloca { i64, i64 }, align 8
  %4 = call { i64, i1 } @llvm.umul.with.overflow.i64(i64 %self, i64 %rhs)
  %5 = extractvalue { i64, i1 } %4, 0
  %6 = extractvalue { i64, i1 } %4, 1
  %7 = zext i1 %6 to i8
  %8 = bitcast { i64, i8 }* %0 to i64*
  store i64 %5, i64* %8, align 8
  %9 = getelementptr inbounds { i64, i8 }, { i64, i8 }* %0, i32 0, i32 1
  store i8 %7, i8* %9, align 8
  %10 = getelementptr inbounds { i64, i8 }, { i64, i8 }* %0, i32 0, i32 0
  %_5.0.i = load i64, i64* %10, align 8
  %11 = getelementptr inbounds { i64, i8 }, { i64, i8 }* %0, i32 0, i32 1
  %12 = load i8, i8* %11, align 8, !range !3
  %_5.1.i = trunc i8 %12 to i1
  %13 = bitcast { i64, i8 }* %1 to i64*
  store i64 %_5.0.i, i64* %13, align 8
  %14 = getelementptr inbounds { i64, i8 }, { i64, i8 }* %1, i32 0, i32 1
  %15 = zext i1 %_5.1.i to i8
  store i8 %15, i8* %14, align 8
  %16 = getelementptr inbounds { i64, i8 }, { i64, i8 }* %1, i32 0, i32 0
  %17 = load i64, i64* %16, align 8
  %18 = getelementptr inbounds { i64, i8 }, { i64, i8 }* %1, i32 0, i32 1
  %19 = load i8, i8* %18, align 8, !range !3
  %20 = trunc i8 %19 to i1
  %21 = zext i1 %20 to i8
  %22 = insertvalue { i64, i8 } undef, i64 %17, 0
  %23 = insertvalue { i64, i8 } %22, i8 %21, 1
  %_5.0 = extractvalue { i64, i8 } %23, 0
  %24 = extractvalue { i64, i8 } %23, 1
  %_5.1 = trunc i8 %24 to i1
  br label %bb1

bb1:                                              ; preds = %start
  %25 = call i1 @llvm.expect.i1(i1 %_5.1, i1 false)
  %26 = zext i1 %25 to i8
  store i8 %26, i8* %2, align 1
  %27 = load i8, i8* %2, align 1, !range !3
  %_8 = trunc i8 %27 to i1
  br label %bb2

bb2:                                              ; preds = %bb1
  br i1 %_8, label %bb3, label %bb4

bb4:                                              ; preds = %bb2
  %28 = bitcast { i64, i64 }* %3 to %"core::option::Option<usize>::Some"*
  %29 = getelementptr inbounds %"core::option::Option<usize>::Some", %"core::option::Option<usize>::Some"* %28, i32 0, i32 1
  store i64 %_5.0, i64* %29, align 8
  %30 = bitcast { i64, i64 }* %3 to i64*
  store i64 1, i64* %30, align 8
  br label %bb5

bb3:                                              ; preds = %bb2
  %31 = bitcast { i64, i64 }* %3 to i64*
  store i64 0, i64* %31, align 8
  br label %bb5

bb5:                                              ; preds = %bb4, %bb3
  %32 = getelementptr inbounds { i64, i64 }, { i64, i64 }* %3, i32 0, i32 0
  %33 = load i64, i64* %32, align 8, !range !4
  %34 = getelementptr inbounds { i64, i64 }, { i64, i64 }* %3, i32 0, i32 1
  %35 = load i64, i64* %34, align 8
  %36 = insertvalue { i64, i64 } undef, i64 %33, 0
  %37 = insertvalue { i64, i64 } %36, i64 %35, 1
  ret { i64, i64 } %37
}

; core::num::nonzero::NonZeroUsize::new_unchecked
; Function Attrs: inlinehint uwtable
define internal i64 @_ZN4core3num7nonzero12NonZeroUsize13new_unchecked17hd653271dd545f871E(i64 %n) unnamed_addr #0 {
start:
  %0 = alloca i64, align 8
  store i64 %n, i64* %0, align 8
  %1 = load i64, i64* %0, align 8, !range !5
  ret i64 %1
}

; core::num::nonzero::NonZeroUsize::get
; Function Attrs: inlinehint uwtable
define internal i64 @_ZN4core3num7nonzero12NonZeroUsize3get17h805171205d44666cE(i64 %self) unnamed_addr #0 {
start:
  ret i64 %self
}

; core::ops::function::FnOnce::call_once{{vtable.shim}}
; Function Attrs: inlinehint uwtable
define internal i32 @"_ZN4core3ops8function6FnOnce40call_once$u7b$$u7b$vtable.shim$u7d$$u7d$17he1d6ed8f8bab3f7fE"(i64** %_1) unnamed_addr #0 {
start:
  %_2 = alloca {}, align 1
  %0 = load i64*, i64** %_1, align 8, !nonnull !2
; call core::ops::function::FnOnce::call_once
  %1 = call i32 @_ZN4core3ops8function6FnOnce9call_once17hb564e0400dbb757bE(i64* nonnull %0)
  br label %bb1

bb1:                                              ; preds = %start
  ret i32 %1
}

; core::ops::function::FnOnce::call_once
; Function Attrs: inlinehint uwtable
define internal i32 @_ZN4core3ops8function6FnOnce9call_once17hb564e0400dbb757bE(i64* nonnull %0) unnamed_addr #0 personality i32 (i32, i32, i64, %"unwind::libunwind::_Unwind_Exception"*, %"unwind::libunwind::_Unwind_Context"*)* @rust_eh_personality {
start:
  %1 = alloca { i8*, i32 }, align 8
  %_2 = alloca {}, align 1
  %_1 = alloca i64*, align 8
  store i64* %0, i64** %_1, align 8
; invoke std::rt::lang_start::{{closure}}
  %2 = invoke i32 @"_ZN3std2rt10lang_start28_$u7b$$u7b$closure$u7d$$u7d$17h2415c6b9c49dae65E"(i64** align 8 dereferenceable(8) %_1)
          to label %bb1 unwind label %cleanup

bb1:                                              ; preds = %start
  br label %bb2

bb3:                                              ; preds = %cleanup
  br label %bb4

cleanup:                                          ; preds = %start
  %3 = landingpad { i8*, i32 }
          cleanup
  %4 = extractvalue { i8*, i32 } %3, 0
  %5 = extractvalue { i8*, i32 } %3, 1
  %6 = getelementptr inbounds { i8*, i32 }, { i8*, i32 }* %1, i32 0, i32 0
  store i8* %4, i8** %6, align 8
  %7 = getelementptr inbounds { i8*, i32 }, { i8*, i32 }* %1, i32 0, i32 1
  store i32 %5, i32* %7, align 8
  br label %bb3

bb4:                                              ; preds = %bb3
  %8 = bitcast { i8*, i32 }* %1 to i8**
  %9 = load i8*, i8** %8, align 8
  %10 = getelementptr inbounds { i8*, i32 }, { i8*, i32 }* %1, i32 0, i32 1
  %11 = load i32, i32* %10, align 8
  %12 = insertvalue { i8*, i32 } undef, i8* %9, 0
  %13 = insertvalue { i8*, i32 } %12, i32 %11, 1
  resume { i8*, i32 } %13

bb2:                                              ; preds = %bb1
  ret i32 %2
}

; core::ops::function::FnOnce::call_once
; Function Attrs: inlinehint uwtable
define internal void @_ZN4core3ops8function6FnOnce9call_once17hce4b67aefbbb72c8E(void ()* nonnull %_1) unnamed_addr #0 {
start:
  %_2 = alloca {}, align 1
  call void %_1()
  br label %bb1

bb1:                                              ; preds = %start
  ret void
}

; core::ptr::slice_from_raw_parts
; Function Attrs: inlinehint uwtable
define internal { [0 x i8]*, i64 } @_ZN4core3ptr20slice_from_raw_parts17h1724d3212443fe94E(i8* %data, i64 %len) unnamed_addr #0 {
start:
; call core::ptr::const_ptr::<impl *const T>::cast
  %_3 = call {}* @"_ZN4core3ptr9const_ptr33_$LT$impl$u20$$BP$const$u20$T$GT$4cast17hd9e8657b87857d14E"(i8* %data)
  br label %bb1

bb1:                                              ; preds = %start
; call core::ptr::metadata::from_raw_parts
  %0 = call { [0 x i8]*, i64 } @_ZN4core3ptr8metadata14from_raw_parts17h6e0c567a3cfaca26E({}* %_3, i64 %len)
  %1 = extractvalue { [0 x i8]*, i64 } %0, 0
  %2 = extractvalue { [0 x i8]*, i64 } %0, 1
  br label %bb2

bb2:                                              ; preds = %bb1
  %3 = insertvalue { [0 x i8]*, i64 } undef, [0 x i8]* %1, 0
  %4 = insertvalue { [0 x i8]*, i64 } %3, i64 %2, 1
  ret { [0 x i8]*, i64 } %4
}

; core::ptr::slice_from_raw_parts_mut
; Function Attrs: inlinehint uwtable
define internal { [0 x i8]*, i64 } @_ZN4core3ptr24slice_from_raw_parts_mut17hb03ff5ebdb0d9023E(i8* %data, i64 %len) unnamed_addr #0 {
start:
  %0 = bitcast i8* %data to {}*
  br label %bb1

bb1:                                              ; preds = %start
; call core::ptr::metadata::from_raw_parts_mut
  %1 = call { [0 x i8]*, i64 } @_ZN4core3ptr8metadata18from_raw_parts_mut17h1a050042daa30ab3E({}* %0, i64 %len)
  %2 = extractvalue { [0 x i8]*, i64 } %1, 0
  %3 = extractvalue { [0 x i8]*, i64 } %1, 1
  br label %bb2

bb2:                                              ; preds = %bb1
  %4 = insertvalue { [0 x i8]*, i64 } undef, [0 x i8]* %2, 0
  %5 = insertvalue { [0 x i8]*, i64 } %4, i64 %3, 1
  ret { [0 x i8]*, i64 } %5
}

; core::ptr::drop_in_place<alloc::string::String>
; Function Attrs: uwtable
define internal void @"_ZN4core3ptr42drop_in_place$LT$alloc..string..String$GT$17h9ef53f2db310bb6dE"(%"alloc::string::String"* %_1) unnamed_addr #2 {
start:
  %0 = bitcast %"alloc::string::String"* %_1 to %"alloc::vec::Vec<u8>"*
; call core::ptr::drop_in_place<alloc::vec::Vec<u8>>
  call void @"_ZN4core3ptr46drop_in_place$LT$alloc..vec..Vec$LT$u8$GT$$GT$17h8db5e84358f51ce7E"(%"alloc::vec::Vec<u8>"* %0)
  br label %bb1

bb1:                                              ; preds = %start
  ret void
}

; core::ptr::drop_in_place<alloc::vec::Vec<u8>>
; Function Attrs: uwtable
define internal void @"_ZN4core3ptr46drop_in_place$LT$alloc..vec..Vec$LT$u8$GT$$GT$17h8db5e84358f51ce7E"(%"alloc::vec::Vec<u8>"* %_1) unnamed_addr #2 personality i32 (i32, i32, i64, %"unwind::libunwind::_Unwind_Exception"*, %"unwind::libunwind::_Unwind_Context"*)* @rust_eh_personality {
start:
  %0 = alloca { i8*, i32 }, align 8
; invoke <alloc::vec::Vec<T,A> as core::ops::drop::Drop>::drop
  invoke void @"_ZN70_$LT$alloc..vec..Vec$LT$T$C$A$GT$$u20$as$u20$core..ops..drop..Drop$GT$4drop17h77975616995c9b02E"(%"alloc::vec::Vec<u8>"* align 8 dereferenceable(24) %_1)
          to label %bb4 unwind label %cleanup

bb4:                                              ; preds = %start
  %1 = bitcast %"alloc::vec::Vec<u8>"* %_1 to { i8*, i64 }*
; call core::ptr::drop_in_place<alloc::raw_vec::RawVec<u8>>
  call void @"_ZN4core3ptr53drop_in_place$LT$alloc..raw_vec..RawVec$LT$u8$GT$$GT$17h0481c0e400566d0fE"({ i8*, i64 }* %1)
  br label %bb2

bb3:                                              ; preds = %cleanup
  %2 = bitcast %"alloc::vec::Vec<u8>"* %_1 to { i8*, i64 }*
; call core::ptr::drop_in_place<alloc::raw_vec::RawVec<u8>>
  call void @"_ZN4core3ptr53drop_in_place$LT$alloc..raw_vec..RawVec$LT$u8$GT$$GT$17h0481c0e400566d0fE"({ i8*, i64 }* %2) #13
  br label %bb1

cleanup:                                          ; preds = %start
  %3 = landingpad { i8*, i32 }
          cleanup
  %4 = extractvalue { i8*, i32 } %3, 0
  %5 = extractvalue { i8*, i32 } %3, 1
  %6 = getelementptr inbounds { i8*, i32 }, { i8*, i32 }* %0, i32 0, i32 0
  store i8* %4, i8** %6, align 8
  %7 = getelementptr inbounds { i8*, i32 }, { i8*, i32 }* %0, i32 0, i32 1
  store i32 %5, i32* %7, align 8
  br label %bb3

bb1:                                              ; preds = %bb3
  %8 = bitcast { i8*, i32 }* %0 to i8**
  %9 = load i8*, i8** %8, align 8
  %10 = getelementptr inbounds { i8*, i32 }, { i8*, i32 }* %0, i32 0, i32 1
  %11 = load i32, i32* %10, align 8
  %12 = insertvalue { i8*, i32 } undef, i8* %9, 0
  %13 = insertvalue { i8*, i32 } %12, i32 %11, 1
  resume { i8*, i32 } %13

bb2:                                              ; preds = %bb4
  ret void
}

; core::ptr::drop_in_place<alloc::raw_vec::RawVec<u8>>
; Function Attrs: uwtable
define internal void @"_ZN4core3ptr53drop_in_place$LT$alloc..raw_vec..RawVec$LT$u8$GT$$GT$17h0481c0e400566d0fE"({ i8*, i64 }* %_1) unnamed_addr #2 {
start:
; call <alloc::raw_vec::RawVec<T,A> as core::ops::drop::Drop>::drop
  call void @"_ZN77_$LT$alloc..raw_vec..RawVec$LT$T$C$A$GT$$u20$as$u20$core..ops..drop..Drop$GT$4drop17ha0b76459cdd411fcE"({ i8*, i64 }* align 8 dereferenceable(16) %_1)
  br label %bb1

bb1:                                              ; preds = %start
  ret void
}

; core::ptr::drop_in_place<core::alloc::layout::LayoutError>
; Function Attrs: inlinehint uwtable
define internal void @"_ZN4core3ptr53drop_in_place$LT$core..alloc..layout..LayoutError$GT$17h93686b9dafd052b9E"(%"core::alloc::layout::LayoutError"* %_1) unnamed_addr #0 {
start:
  ret void
}

; core::ptr::unique::Unique<T>::new_unchecked
; Function Attrs: inlinehint uwtable
define internal nonnull i8* @"_ZN4core3ptr6unique15Unique$LT$T$GT$13new_unchecked17hca209d969e39900aE"(i8* %ptr) unnamed_addr #0 {
start:
  %0 = alloca i8*, align 8
  store i8* %ptr, i8** %0, align 8
  %1 = load i8*, i8** %0, align 8, !nonnull !2
  ret i8* %1
}

; core::ptr::unique::Unique<T>::cast
; Function Attrs: inlinehint uwtable
define internal nonnull i8* @"_ZN4core3ptr6unique15Unique$LT$T$GT$4cast17h63e8016e670d818aE"(i8* nonnull %self) unnamed_addr #0 {
start:
; call core::ptr::unique::Unique<T>::as_ptr
  %_3 = call i8* @"_ZN4core3ptr6unique15Unique$LT$T$GT$6as_ptr17h51f47b6a7140a787E"(i8* nonnull %self)
  br label %bb1

bb1:                                              ; preds = %start
; call core::ptr::unique::Unique<T>::new_unchecked
  %0 = call nonnull i8* @"_ZN4core3ptr6unique15Unique$LT$T$GT$13new_unchecked17hca209d969e39900aE"(i8* %_3)
  br label %bb2

bb2:                                              ; preds = %bb1
  ret i8* %0
}

; core::ptr::unique::Unique<T>::as_ptr
; Function Attrs: inlinehint uwtable
define internal i8* @"_ZN4core3ptr6unique15Unique$LT$T$GT$6as_ptr17h51f47b6a7140a787E"(i8* nonnull %self) unnamed_addr #0 {
start:
  ret i8* %self
}

; core::ptr::unique::Unique<T>::dangling
; Function Attrs: inlinehint uwtable
define internal nonnull i8* @"_ZN4core3ptr6unique15Unique$LT$T$GT$8dangling17hdfced504b5ea8a4fE"() unnamed_addr #0 {
start:
  br label %bb1

bb1:                                              ; preds = %start
  %_1 = inttoptr i64 1 to i8*
; call core::ptr::unique::Unique<T>::new_unchecked
  %0 = call nonnull i8* @"_ZN4core3ptr6unique15Unique$LT$T$GT$13new_unchecked17hca209d969e39900aE"(i8* %_1)
  br label %bb2

bb2:                                              ; preds = %bb1
  ret i8* %0
}

; core::ptr::mut_ptr::<impl *mut T>::guaranteed_eq
; Function Attrs: inlinehint uwtable
define internal zeroext i1 @"_ZN4core3ptr7mut_ptr31_$LT$impl$u20$$BP$mut$u20$T$GT$13guaranteed_eq17hc991f12558576900E"(i8* %self, i8* %other) unnamed_addr #0 {
start:
  %0 = alloca i8, align 1
  %1 = icmp eq i8* %self, %other
  %2 = zext i1 %1 to i8
  store i8 %2, i8* %0, align 1
  %3 = load i8, i8* %0, align 1, !range !3
  %4 = trunc i8 %3 to i1
  br label %bb1

bb1:                                              ; preds = %start
  ret i1 %4
}

; core::ptr::mut_ptr::<impl *mut T>::is_null
; Function Attrs: inlinehint uwtable
define internal zeroext i1 @"_ZN4core3ptr7mut_ptr31_$LT$impl$u20$$BP$mut$u20$T$GT$7is_null17h819ec19a7263a8d8E"(i8* %self) unnamed_addr #0 {
start:
  br label %bb1

bb1:                                              ; preds = %start
; call core::ptr::mut_ptr::<impl *mut T>::guaranteed_eq
  %0 = call zeroext i1 @"_ZN4core3ptr7mut_ptr31_$LT$impl$u20$$BP$mut$u20$T$GT$13guaranteed_eq17hc991f12558576900E"(i8* %self, i8* null)
  br label %bb2

bb2:                                              ; preds = %bb1
  ret i1 %0
}

; core::ptr::drop_in_place<std::rt::lang_start<()>::{{closure}}>
; Function Attrs: inlinehint uwtable
define internal void @"_ZN4core3ptr85drop_in_place$LT$std..rt..lang_start$LT$$LP$$RP$$GT$..$u7b$$u7b$closure$u7d$$u7d$$GT$17h69e877ad81ce4da0E"(i64** %_1) unnamed_addr #0 {
start:
  ret void
}

; core::ptr::metadata::from_raw_parts
; Function Attrs: inlinehint uwtable
define internal { [0 x i8]*, i64 } @_ZN4core3ptr8metadata14from_raw_parts17h6e0c567a3cfaca26E({}* %data_address, i64 %metadata) unnamed_addr #0 {
start:
  %_4 = alloca { i8*, i64 }, align 8
  %_3 = alloca %"core::ptr::metadata::PtrRepr<[u8]>", align 8
  %0 = bitcast { i8*, i64 }* %_4 to {}**
  store {}* %data_address, {}** %0, align 8
  %1 = getelementptr inbounds { i8*, i64 }, { i8*, i64 }* %_4, i32 0, i32 1
  store i64 %metadata, i64* %1, align 8
  %2 = bitcast %"core::ptr::metadata::PtrRepr<[u8]>"* %_3 to { i8*, i64 }*
  %3 = getelementptr inbounds { i8*, i64 }, { i8*, i64 }* %_4, i32 0, i32 0
  %4 = load i8*, i8** %3, align 8
  %5 = getelementptr inbounds { i8*, i64 }, { i8*, i64 }* %_4, i32 0, i32 1
  %6 = load i64, i64* %5, align 8
  %7 = getelementptr inbounds { i8*, i64 }, { i8*, i64 }* %2, i32 0, i32 0
  store i8* %4, i8** %7, align 8
  %8 = getelementptr inbounds { i8*, i64 }, { i8*, i64 }* %2, i32 0, i32 1
  store i64 %6, i64* %8, align 8
  %9 = bitcast %"core::ptr::metadata::PtrRepr<[u8]>"* %_3 to { [0 x i8]*, i64 }*
  %10 = getelementptr inbounds { [0 x i8]*, i64 }, { [0 x i8]*, i64 }* %9, i32 0, i32 0
  %11 = load [0 x i8]*, [0 x i8]** %10, align 8
  %12 = getelementptr inbounds { [0 x i8]*, i64 }, { [0 x i8]*, i64 }* %9, i32 0, i32 1
  %13 = load i64, i64* %12, align 8
  %14 = insertvalue { [0 x i8]*, i64 } undef, [0 x i8]* %11, 0
  %15 = insertvalue { [0 x i8]*, i64 } %14, i64 %13, 1
  ret { [0 x i8]*, i64 } %15
}

; core::ptr::metadata::from_raw_parts_mut
; Function Attrs: inlinehint uwtable
define internal { [0 x i8]*, i64 } @_ZN4core3ptr8metadata18from_raw_parts_mut17h1a050042daa30ab3E({}* %data_address, i64 %metadata) unnamed_addr #0 {
start:
  %_4 = alloca { i8*, i64 }, align 8
  %_3 = alloca %"core::ptr::metadata::PtrRepr<[u8]>", align 8
  %0 = bitcast { i8*, i64 }* %_4 to {}**
  store {}* %data_address, {}** %0, align 8
  %1 = getelementptr inbounds { i8*, i64 }, { i8*, i64 }* %_4, i32 0, i32 1
  store i64 %metadata, i64* %1, align 8
  %2 = bitcast %"core::ptr::metadata::PtrRepr<[u8]>"* %_3 to { i8*, i64 }*
  %3 = getelementptr inbounds { i8*, i64 }, { i8*, i64 }* %_4, i32 0, i32 0
  %4 = load i8*, i8** %3, align 8
  %5 = getelementptr inbounds { i8*, i64 }, { i8*, i64 }* %_4, i32 0, i32 1
  %6 = load i64, i64* %5, align 8
  %7 = getelementptr inbounds { i8*, i64 }, { i8*, i64 }* %2, i32 0, i32 0
  store i8* %4, i8** %7, align 8
  %8 = getelementptr inbounds { i8*, i64 }, { i8*, i64 }* %2, i32 0, i32 1
  store i64 %6, i64* %8, align 8
  %9 = bitcast %"core::ptr::metadata::PtrRepr<[u8]>"* %_3 to { [0 x i8]*, i64 }*
  %10 = getelementptr inbounds { [0 x i8]*, i64 }, { [0 x i8]*, i64 }* %9, i32 0, i32 0
  %11 = load [0 x i8]*, [0 x i8]** %10, align 8
  %12 = getelementptr inbounds { [0 x i8]*, i64 }, { [0 x i8]*, i64 }* %9, i32 0, i32 1
  %13 = load i64, i64* %12, align 8
  %14 = insertvalue { [0 x i8]*, i64 } undef, [0 x i8]* %11, 0
  %15 = insertvalue { [0 x i8]*, i64 } %14, i64 %13, 1
  ret { [0 x i8]*, i64 } %15
}

; core::ptr::metadata::metadata
; Function Attrs: inlinehint uwtable
define internal i64 @_ZN4core3ptr8metadata8metadata17h502064b607b2d63eE([0 x i8]* %ptr.0, i64 %ptr.1) unnamed_addr #0 {
start:
  %_2 = alloca %"core::ptr::metadata::PtrRepr<[u8]>", align 8
  %0 = bitcast %"core::ptr::metadata::PtrRepr<[u8]>"* %_2 to { [0 x i8]*, i64 }*
  %1 = getelementptr inbounds { [0 x i8]*, i64 }, { [0 x i8]*, i64 }* %0, i32 0, i32 0
  store [0 x i8]* %ptr.0, [0 x i8]** %1, align 8
  %2 = getelementptr inbounds { [0 x i8]*, i64 }, { [0 x i8]*, i64 }* %0, i32 0, i32 1
  store i64 %ptr.1, i64* %2, align 8
  %3 = bitcast %"core::ptr::metadata::PtrRepr<[u8]>"* %_2 to { i8*, i64 }*
  %4 = getelementptr inbounds { i8*, i64 }, { i8*, i64 }* %3, i32 0, i32 1
  %5 = load i64, i64* %4, align 8
  ret i64 %5
}

; core::ptr::non_null::NonNull<T>::new_unchecked
; Function Attrs: inlinehint uwtable
define internal { i8*, i64 } @"_ZN4core3ptr8non_null16NonNull$LT$T$GT$13new_unchecked17h4d4de9b7680316faE"([0 x i8]* %ptr.0, i64 %ptr.1) unnamed_addr #0 {
start:
  %0 = alloca { i8*, i64 }, align 8
  %1 = bitcast { i8*, i64 }* %0 to { [0 x i8]*, i64 }*
  %2 = getelementptr inbounds { [0 x i8]*, i64 }, { [0 x i8]*, i64 }* %1, i32 0, i32 0
  store [0 x i8]* %ptr.0, [0 x i8]** %2, align 8
  %3 = getelementptr inbounds { [0 x i8]*, i64 }, { [0 x i8]*, i64 }* %1, i32 0, i32 1
  store i64 %ptr.1, i64* %3, align 8
  %4 = getelementptr inbounds { i8*, i64 }, { i8*, i64 }* %0, i32 0, i32 0
  %5 = load i8*, i8** %4, align 8, !nonnull !2
  %6 = getelementptr inbounds { i8*, i64 }, { i8*, i64 }* %0, i32 0, i32 1
  %7 = load i64, i64* %6, align 8
  %8 = insertvalue { i8*, i64 } undef, i8* %5, 0
  %9 = insertvalue { i8*, i64 } %8, i64 %7, 1
  ret { i8*, i64 } %9
}

; core::ptr::non_null::NonNull<T>::new_unchecked
; Function Attrs: inlinehint uwtable
define internal nonnull i8* @"_ZN4core3ptr8non_null16NonNull$LT$T$GT$13new_unchecked17h52016c20d23e96b9E"(i8* %ptr) unnamed_addr #0 {
start:
  %0 = alloca i8*, align 8
  store i8* %ptr, i8** %0, align 8
  %1 = load i8*, i8** %0, align 8, !nonnull !2
  ret i8* %1
}

; core::ptr::non_null::NonNull<T>::new
; Function Attrs: inlinehint uwtable
define internal i8* @"_ZN4core3ptr8non_null16NonNull$LT$T$GT$3new17hee11c469cc875969E"(i8* %ptr) unnamed_addr #0 {
start:
  %0 = alloca i8*, align 8
; call core::ptr::mut_ptr::<impl *mut T>::is_null
  %_3 = call zeroext i1 @"_ZN4core3ptr7mut_ptr31_$LT$impl$u20$$BP$mut$u20$T$GT$7is_null17h819ec19a7263a8d8E"(i8* %ptr)
  br label %bb1

bb1:                                              ; preds = %start
  %_2 = xor i1 %_3, true
  br i1 %_2, label %bb2, label %bb4

bb4:                                              ; preds = %bb1
  %1 = bitcast i8** %0 to {}**
  store {}* null, {}** %1, align 8
  br label %bb5

bb2:                                              ; preds = %bb1
; call core::ptr::non_null::NonNull<T>::new_unchecked
  %_5 = call nonnull i8* @"_ZN4core3ptr8non_null16NonNull$LT$T$GT$13new_unchecked17h52016c20d23e96b9E"(i8* %ptr)
  br label %bb3

bb3:                                              ; preds = %bb2
  store i8* %_5, i8** %0, align 8
  br label %bb5

bb5:                                              ; preds = %bb4, %bb3
  %2 = load i8*, i8** %0, align 8
  ret i8* %2
}

; core::ptr::non_null::NonNull<T>::cast
; Function Attrs: inlinehint uwtable
define internal nonnull i8* @"_ZN4core3ptr8non_null16NonNull$LT$T$GT$4cast17h973bf534f0975ea5E"(i8* nonnull %self.0, i64 %self.1) unnamed_addr #0 {
start:
; call core::ptr::non_null::NonNull<T>::as_ptr
  %0 = call { [0 x i8]*, i64 } @"_ZN4core3ptr8non_null16NonNull$LT$T$GT$6as_ptr17h994c940c9feb726eE"(i8* nonnull %self.0, i64 %self.1)
  %_3.0 = extractvalue { [0 x i8]*, i64 } %0, 0
  %_3.1 = extractvalue { [0 x i8]*, i64 } %0, 1
  br label %bb1

bb1:                                              ; preds = %start
  %_2 = bitcast [0 x i8]* %_3.0 to i8*
; call core::ptr::non_null::NonNull<T>::new_unchecked
  %1 = call nonnull i8* @"_ZN4core3ptr8non_null16NonNull$LT$T$GT$13new_unchecked17h52016c20d23e96b9E"(i8* %_2)
  br label %bb2

bb2:                                              ; preds = %bb1
  ret i8* %1
}

; core::ptr::non_null::NonNull<T>::as_ptr
; Function Attrs: inlinehint uwtable
define internal i8* @"_ZN4core3ptr8non_null16NonNull$LT$T$GT$6as_ptr17h92acadec0a3051edE"(i8* nonnull %self) unnamed_addr #0 {
start:
  ret i8* %self
}

; core::ptr::non_null::NonNull<T>::as_ptr
; Function Attrs: inlinehint uwtable
define internal { [0 x i8]*, i64 } @"_ZN4core3ptr8non_null16NonNull$LT$T$GT$6as_ptr17h994c940c9feb726eE"(i8* nonnull %self.0, i64 %self.1) unnamed_addr #0 {
start:
  %_2.0 = bitcast i8* %self.0 to [0 x i8]*
  %0 = insertvalue { [0 x i8]*, i64 } undef, [0 x i8]* %_2.0, 0
  %1 = insertvalue { [0 x i8]*, i64 } %0, i64 %self.1, 1
  ret { [0 x i8]*, i64 } %1
}

; core::ptr::non_null::NonNull<[T]>::slice_from_raw_parts
; Function Attrs: inlinehint uwtable
define internal { i8*, i64 } @"_ZN4core3ptr8non_null26NonNull$LT$$u5b$T$u5d$$GT$20slice_from_raw_parts17hf1acf667bd969d63E"(i8* nonnull %data, i64 %len) unnamed_addr #0 {
start:
; call core::ptr::non_null::NonNull<T>::as_ptr
  %_4 = call i8* @"_ZN4core3ptr8non_null16NonNull$LT$T$GT$6as_ptr17h92acadec0a3051edE"(i8* nonnull %data)
  br label %bb1

bb1:                                              ; preds = %start
; call core::ptr::slice_from_raw_parts_mut
  %0 = call { [0 x i8]*, i64 } @_ZN4core3ptr24slice_from_raw_parts_mut17hb03ff5ebdb0d9023E(i8* %_4, i64 %len)
  %_3.0 = extractvalue { [0 x i8]*, i64 } %0, 0
  %_3.1 = extractvalue { [0 x i8]*, i64 } %0, 1
  br label %bb2

bb2:                                              ; preds = %bb1
; call core::ptr::non_null::NonNull<T>::new_unchecked
  %1 = call { i8*, i64 } @"_ZN4core3ptr8non_null16NonNull$LT$T$GT$13new_unchecked17h4d4de9b7680316faE"([0 x i8]* %_3.0, i64 %_3.1)
  %2 = extractvalue { i8*, i64 } %1, 0
  %3 = extractvalue { i8*, i64 } %1, 1
  br label %bb3

bb3:                                              ; preds = %bb2
  %4 = insertvalue { i8*, i64 } undef, i8* %2, 0
  %5 = insertvalue { i8*, i64 } %4, i64 %3, 1
  ret { i8*, i64 } %5
}

; core::ptr::non_null::NonNull<[T]>::len
; Function Attrs: inlinehint uwtable
define internal i64 @"_ZN4core3ptr8non_null26NonNull$LT$$u5b$T$u5d$$GT$3len17h0af19a10dc7202e4E"(i8* nonnull %self.0, i64 %self.1) unnamed_addr #0 {
start:
; call core::ptr::non_null::NonNull<T>::as_ptr
  %0 = call { [0 x i8]*, i64 } @"_ZN4core3ptr8non_null16NonNull$LT$T$GT$6as_ptr17h994c940c9feb726eE"(i8* nonnull %self.0, i64 %self.1)
  %_2.0 = extractvalue { [0 x i8]*, i64 } %0, 0
  %_2.1 = extractvalue { [0 x i8]*, i64 } %0, 1
  br label %bb1

bb1:                                              ; preds = %start
; call core::ptr::metadata::metadata
  %1 = call i64 @_ZN4core3ptr8metadata8metadata17h502064b607b2d63eE([0 x i8]* %_2.0, i64 %_2.1)
  br label %bb2

bb2:                                              ; preds = %bb1
  ret i64 %1
}

; core::ptr::const_ptr::<impl *const T>::copy_to_nonoverlapping
; Function Attrs: inlinehint uwtable
define internal void @"_ZN4core3ptr9const_ptr33_$LT$impl$u20$$BP$const$u20$T$GT$22copy_to_nonoverlapping17h520bab71fe0d49ddE"(i8* %self, i8* %dest, i64 %count) unnamed_addr #0 {
start:
; call core::intrinsics::copy_nonoverlapping
  call void @_ZN4core10intrinsics19copy_nonoverlapping17h2da48f811d0879d4E(i8* %self, i8* %dest, i64 %count)
  br label %bb1

bb1:                                              ; preds = %start
  ret void
}

; core::ptr::const_ptr::<impl *const T>::cast
; Function Attrs: inlinehint uwtable
define internal {}* @"_ZN4core3ptr9const_ptr33_$LT$impl$u20$$BP$const$u20$T$GT$4cast17hd9e8657b87857d14E"(i8* %self) unnamed_addr #0 {
start:
  %0 = bitcast i8* %self to {}*
  ret {}* %0
}

; core::str::converts::from_utf8_unchecked
; Function Attrs: inlinehint uwtable
define internal { [0 x i8]*, i64 } @_ZN4core3str8converts19from_utf8_unchecked17h3bcb3edae7fe326dE([0 x i8]* nonnull align 1 %v.0, i64 %v.1) unnamed_addr #0 {
start:
  %0 = alloca { [0 x i8]*, i64 }, align 8
  %1 = getelementptr inbounds { [0 x i8]*, i64 }, { [0 x i8]*, i64 }* %0, i32 0, i32 0
  store [0 x i8]* %v.0, [0 x i8]** %1, align 8
  %2 = getelementptr inbounds { [0 x i8]*, i64 }, { [0 x i8]*, i64 }* %0, i32 0, i32 1
  store i64 %v.1, i64* %2, align 8
  %3 = getelementptr inbounds { [0 x i8]*, i64 }, { [0 x i8]*, i64 }* %0, i32 0, i32 0
  %4 = load [0 x i8]*, [0 x i8]** %3, align 8, !nonnull !2
  %5 = getelementptr inbounds { [0 x i8]*, i64 }, { [0 x i8]*, i64 }* %0, i32 0, i32 1
  %6 = load i64, i64* %5, align 8
  br label %bb1

bb1:                                              ; preds = %start
  %7 = insertvalue { [0 x i8]*, i64 } undef, [0 x i8]* %4, 0
  %8 = insertvalue { [0 x i8]*, i64 } %7, i64 %6, 1
  ret { [0 x i8]*, i64 } %8
}

; core::hint::black_box
; Function Attrs: inlinehint uwtable
define internal void @_ZN4core4hint9black_box17h22ca5af108b7f6dbE() unnamed_addr #0 {
start:
  call void asm sideeffect "", "r,~{memory}"({}* undef), !srcloc !6
  br label %bb1

bb1:                                              ; preds = %start
  ret void
}

; core::alloc::layout::size_align
; Function Attrs: uwtable
define internal { i64, i64 } @_ZN4core5alloc6layout10size_align17h93531ecbc641aa42E() unnamed_addr #2 {
start:
  %0 = alloca { i64, i64 }, align 8
  br label %bb1

bb1:                                              ; preds = %start
  br label %bb2

bb2:                                              ; preds = %bb1
  %1 = bitcast { i64, i64 }* %0 to i64*
  store i64 1, i64* %1, align 8
  %2 = getelementptr inbounds { i64, i64 }, { i64, i64 }* %0, i32 0, i32 1
  store i64 1, i64* %2, align 8
  %3 = getelementptr inbounds { i64, i64 }, { i64, i64 }* %0, i32 0, i32 0
  %4 = load i64, i64* %3, align 8
  %5 = getelementptr inbounds { i64, i64 }, { i64, i64 }* %0, i32 0, i32 1
  %6 = load i64, i64* %5, align 8
  %7 = insertvalue { i64, i64 } undef, i64 %4, 0
  %8 = insertvalue { i64, i64 } %7, i64 %6, 1
  ret { i64, i64 } %8
}

; core::alloc::layout::Layout::pad_to_align
; Function Attrs: inlinehint uwtable
define internal { i64, i64 } @_ZN4core5alloc6layout6Layout12pad_to_align17ha9f8cbee0e4e6b5cE({ i64, i64 }* align 8 dereferenceable(16) %self) unnamed_addr #0 {
start:
; call core::alloc::layout::Layout::align
  %_4 = call i64 @_ZN4core5alloc6layout6Layout5align17hd59b187598978824E({ i64, i64 }* align 8 dereferenceable(16) %self)
  br label %bb1

bb1:                                              ; preds = %start
; call core::alloc::layout::Layout::padding_needed_for
  %pad = call i64 @_ZN4core5alloc6layout6Layout18padding_needed_for17h3200f53ce47119d7E({ i64, i64 }* align 8 dereferenceable(16) %self, i64 %_4)
  br label %bb2

bb2:                                              ; preds = %bb1
; call core::alloc::layout::Layout::size
  %_7 = call i64 @_ZN4core5alloc6layout6Layout4size17haaf814c3f3cf8e7cE({ i64, i64 }* align 8 dereferenceable(16) %self)
  br label %bb3

bb3:                                              ; preds = %bb2
  %new_size = add i64 %_7, %pad
; call core::alloc::layout::Layout::align
  %_12 = call i64 @_ZN4core5alloc6layout6Layout5align17hd59b187598978824E({ i64, i64 }* align 8 dereferenceable(16) %self)
  br label %bb4

bb4:                                              ; preds = %bb3
; call core::alloc::layout::Layout::from_size_align
  %0 = call { i64, i64 } @_ZN4core5alloc6layout6Layout15from_size_align17h3b4bbfbc6f52b7b6E(i64 %new_size, i64 %_12)
  %_10.0 = extractvalue { i64, i64 } %0, 0
  %_10.1 = extractvalue { i64, i64 } %0, 1
  br label %bb5

bb5:                                              ; preds = %bb4
; call core::result::Result<T,E>::unwrap
  %1 = call { i64, i64 } @"_ZN4core6result19Result$LT$T$C$E$GT$6unwrap17h5fec2cd983759d5cE"(i64 %_10.0, i64 %_10.1, %"core::panic::location::Location"* align 8 dereferenceable(24) bitcast (<{ i8*, [16 x i8] }>* @alloc66 to %"core::panic::location::Location"*))
  %2 = extractvalue { i64, i64 } %1, 0
  %3 = extractvalue { i64, i64 } %1, 1
  br label %bb6

bb6:                                              ; preds = %bb5
  %4 = insertvalue { i64, i64 } undef, i64 %2, 0
  %5 = insertvalue { i64, i64 } %4, i64 %3, 1
  ret { i64, i64 } %5
}

; core::alloc::layout::Layout::from_size_align
; Function Attrs: inlinehint uwtable
define internal { i64, i64 } @_ZN4core5alloc6layout6Layout15from_size_align17h3b4bbfbc6f52b7b6E(i64 %size, i64 %align) unnamed_addr #0 {
start:
  %0 = alloca i64, align 8
  %1 = alloca { i64, i64 }, align 8
  %2 = call i64 @llvm.ctpop.i64(i64 %align)
  store i64 %2, i64* %0, align 8
  %_2.i.i = load i64, i64* %0, align 8
  %3 = trunc i64 %_2.i.i to i32
  %4 = icmp eq i32 %3, 1
  br label %bb1

bb1:                                              ; preds = %start
  %_3 = xor i1 %4, true
  br i1 %_3, label %bb2, label %bb3

bb3:                                              ; preds = %bb1
  %_9 = sub i64 %align, 1
  %_8 = sub i64 -1, %_9
  %_6 = icmp ugt i64 %size, %_8
  br i1 %_6, label %bb4, label %bb5

bb2:                                              ; preds = %bb1
  %5 = getelementptr inbounds { i64, i64 }, { i64, i64 }* %1, i32 0, i32 1
  store i64 0, i64* %5, align 8
  br label %bb7

bb7:                                              ; preds = %bb6, %bb4, %bb2
  %6 = getelementptr inbounds { i64, i64 }, { i64, i64 }* %1, i32 0, i32 0
  %7 = load i64, i64* %6, align 8
  %8 = getelementptr inbounds { i64, i64 }, { i64, i64 }* %1, i32 0, i32 1
  %9 = load i64, i64* %8, align 8
  %10 = insertvalue { i64, i64 } undef, i64 %7, 0
  %11 = insertvalue { i64, i64 } %10, i64 %9, 1
  ret { i64, i64 } %11

bb5:                                              ; preds = %bb3
; call core::alloc::layout::Layout::from_size_align_unchecked
  %12 = call { i64, i64 } @_ZN4core5alloc6layout6Layout25from_size_align_unchecked17hc03c2dcd594cd531E(i64 %size, i64 %align)
  %_11.0 = extractvalue { i64, i64 } %12, 0
  %_11.1 = extractvalue { i64, i64 } %12, 1
  br label %bb6

bb4:                                              ; preds = %bb3
  %13 = getelementptr inbounds { i64, i64 }, { i64, i64 }* %1, i32 0, i32 1
  store i64 0, i64* %13, align 8
  br label %bb7

bb6:                                              ; preds = %bb5
  %14 = getelementptr inbounds { i64, i64 }, { i64, i64 }* %1, i32 0, i32 0
  store i64 %_11.0, i64* %14, align 8
  %15 = getelementptr inbounds { i64, i64 }, { i64, i64 }* %1, i32 0, i32 1
  store i64 %_11.1, i64* %15, align 8
  br label %bb7
}

; core::alloc::layout::Layout::padding_needed_for
; Function Attrs: inlinehint uwtable
define internal i64 @_ZN4core5alloc6layout6Layout18padding_needed_for17h3200f53ce47119d7E({ i64, i64 }* align 8 dereferenceable(16) %self, i64 %align) unnamed_addr #0 {
start:
; call core::alloc::layout::Layout::size
  %len = call i64 @_ZN4core5alloc6layout6Layout4size17haaf814c3f3cf8e7cE({ i64, i64 }* align 8 dereferenceable(16) %self)
  br label %bb1

bb1:                                              ; preds = %start
  %0 = add i64 %len, %align
  br label %bb2

bb2:                                              ; preds = %bb1
  %1 = sub i64 %0, 1
  br label %bb3

bb3:                                              ; preds = %bb2
  %2 = sub i64 %align, 1
  br label %bb4

bb4:                                              ; preds = %bb3
  %_10 = xor i64 %2, -1
  %len_rounded_up = and i64 %1, %_10
  %3 = sub i64 %len_rounded_up, %len
  br label %bb5

bb5:                                              ; preds = %bb4
  ret i64 %3
}

; core::alloc::layout::Layout::from_size_align_unchecked
; Function Attrs: inlinehint uwtable
define internal { i64, i64 } @_ZN4core5alloc6layout6Layout25from_size_align_unchecked17hc03c2dcd594cd531E(i64 %size, i64 %align) unnamed_addr #0 {
start:
  %0 = alloca { i64, i64 }, align 8
; call core::num::nonzero::NonZeroUsize::new_unchecked
  %_4 = call i64 @_ZN4core3num7nonzero12NonZeroUsize13new_unchecked17hd653271dd545f871E(i64 %align), !range !5
  br label %bb1

bb1:                                              ; preds = %start
  %1 = bitcast { i64, i64 }* %0 to i64*
  store i64 %size, i64* %1, align 8
  %2 = getelementptr inbounds { i64, i64 }, { i64, i64 }* %0, i32 0, i32 1
  store i64 %_4, i64* %2, align 8
  %3 = getelementptr inbounds { i64, i64 }, { i64, i64 }* %0, i32 0, i32 0
  %4 = load i64, i64* %3, align 8
  %5 = getelementptr inbounds { i64, i64 }, { i64, i64 }* %0, i32 0, i32 1
  %6 = load i64, i64* %5, align 8, !range !5
  %7 = insertvalue { i64, i64 } undef, i64 %4, 0
  %8 = insertvalue { i64, i64 } %7, i64 %6, 1
  ret { i64, i64 } %8
}

; core::alloc::layout::Layout::new
; Function Attrs: inlinehint uwtable
define internal { i64, i64 } @_ZN4core5alloc6layout6Layout3new17h81451c7eec2be6b0E() unnamed_addr #0 {
start:
; call core::alloc::layout::size_align
  %0 = call { i64, i64 } @_ZN4core5alloc6layout10size_align17h93531ecbc641aa42E()
  %_3.0 = extractvalue { i64, i64 } %0, 0
  %_3.1 = extractvalue { i64, i64 } %0, 1
  br label %bb1

bb1:                                              ; preds = %start
; call core::alloc::layout::Layout::from_size_align_unchecked
  %1 = call { i64, i64 } @_ZN4core5alloc6layout6Layout25from_size_align_unchecked17hc03c2dcd594cd531E(i64 %_3.0, i64 %_3.1)
  %2 = extractvalue { i64, i64 } %1, 0
  %3 = extractvalue { i64, i64 } %1, 1
  br label %bb2

bb2:                                              ; preds = %bb1
  %4 = insertvalue { i64, i64 } undef, i64 %2, 0
  %5 = insertvalue { i64, i64 } %4, i64 %3, 1
  ret { i64, i64 } %5
}

; core::alloc::layout::Layout::size
; Function Attrs: inlinehint uwtable
define internal i64 @_ZN4core5alloc6layout6Layout4size17haaf814c3f3cf8e7cE({ i64, i64 }* align 8 dereferenceable(16) %self) unnamed_addr #0 {
start:
  %0 = bitcast { i64, i64 }* %self to i64*
  %1 = load i64, i64* %0, align 8
  ret i64 %1
}

; core::alloc::layout::Layout::align
; Function Attrs: inlinehint uwtable
define internal i64 @_ZN4core5alloc6layout6Layout5align17hd59b187598978824E({ i64, i64 }* align 8 dereferenceable(16) %self) unnamed_addr #0 {
start:
  %0 = getelementptr inbounds { i64, i64 }, { i64, i64 }* %self, i32 0, i32 1
  %_2 = load i64, i64* %0, align 8, !range !5
; call core::num::nonzero::NonZeroUsize::get
  %1 = call i64 @_ZN4core3num7nonzero12NonZeroUsize3get17h805171205d44666cE(i64 %_2)
  br label %bb1

bb1:                                              ; preds = %start
  ret i64 %1
}

; core::alloc::layout::Layout::array
; Function Attrs: inlinehint uwtable
define internal { i64, i64 } @_ZN4core5alloc6layout6Layout5array17h0e77b194534bb65aE(i64 %n) unnamed_addr #0 {
start:
  %val = alloca { { i64, i64 }, i64 }, align 8
  %_8 = alloca { i64, i64 }, align 8
  %_6 = alloca %"core::result::Result<(core::alloc::layout::Layout, usize), core::alloc::layout::LayoutError>", align 8
  %_5 = alloca %"core::ops::control_flow::ControlFlow<core::result::Result<core::convert::Infallible, core::alloc::layout::LayoutError>, (core::alloc::layout::Layout, usize)>", align 8
  %_4 = alloca { { i64, i64 }, i64 }, align 8
  %layout = alloca { i64, i64 }, align 8
  %0 = alloca { i64, i64 }, align 8
; call core::alloc::layout::Layout::new
  %1 = call { i64, i64 } @_ZN4core5alloc6layout6Layout3new17h81451c7eec2be6b0E()
  store { i64, i64 } %1, { i64, i64 }* %_8, align 8
  br label %bb1

bb1:                                              ; preds = %start
; call core::alloc::layout::Layout::repeat
  call void @_ZN4core5alloc6layout6Layout6repeat17hb79aaf12c8e341c0E(%"core::result::Result<(core::alloc::layout::Layout, usize), core::alloc::layout::LayoutError>"* noalias nocapture sret(%"core::result::Result<(core::alloc::layout::Layout, usize), core::alloc::layout::LayoutError>") dereferenceable(24) %_6, { i64, i64 }* align 8 dereferenceable(16) %_8, i64 %n)
  br label %bb2

bb2:                                              ; preds = %bb1
; call <core::result::Result<T,E> as core::ops::try_trait::Try>::branch
  call void @"_ZN79_$LT$core..result..Result$LT$T$C$E$GT$$u20$as$u20$core..ops..try_trait..Try$GT$6branch17h4ed23a4b6949c308E"(%"core::ops::control_flow::ControlFlow<core::result::Result<core::convert::Infallible, core::alloc::layout::LayoutError>, (core::alloc::layout::Layout, usize)>"* noalias nocapture sret(%"core::ops::control_flow::ControlFlow<core::result::Result<core::convert::Infallible, core::alloc::layout::LayoutError>, (core::alloc::layout::Layout, usize)>") dereferenceable(24) %_5, %"core::result::Result<(core::alloc::layout::Layout, usize), core::alloc::layout::LayoutError>"* noalias nocapture dereferenceable(24) %_6)
  br label %bb3

bb3:                                              ; preds = %bb2
  %2 = getelementptr inbounds %"core::ops::control_flow::ControlFlow<core::result::Result<core::convert::Infallible, core::alloc::layout::LayoutError>, (core::alloc::layout::Layout, usize)>", %"core::ops::control_flow::ControlFlow<core::result::Result<core::convert::Infallible, core::alloc::layout::LayoutError>, (core::alloc::layout::Layout, usize)>"* %_5, i32 0, i32 1
  %3 = load i64, i64* %2, align 8
  %4 = icmp eq i64 %3, 0
  %_10 = select i1 %4, i64 1, i64 0
  switch i64 %_10, label %bb5 [
    i64 0, label %bb4
    i64 1, label %bb6
  ]

bb5:                                              ; preds = %bb3
  unreachable

bb4:                                              ; preds = %bb3
  %5 = bitcast %"core::ops::control_flow::ControlFlow<core::result::Result<core::convert::Infallible, core::alloc::layout::LayoutError>, (core::alloc::layout::Layout, usize)>"* %_5 to %"core::ops::control_flow::ControlFlow<core::result::Result<core::convert::Infallible, core::alloc::layout::LayoutError>, (core::alloc::layout::Layout, usize)>::Continue"*
  %6 = bitcast %"core::ops::control_flow::ControlFlow<core::result::Result<core::convert::Infallible, core::alloc::layout::LayoutError>, (core::alloc::layout::Layout, usize)>::Continue"* %5 to { { i64, i64 }, i64 }*
  %7 = bitcast { { i64, i64 }, i64 }* %val to i8*
  %8 = bitcast { { i64, i64 }, i64 }* %6 to i8*
  call void @llvm.memcpy.p0i8.p0i8.i64(i8* align 8 %7, i8* align 8 %8, i64 24, i1 false)
  %9 = bitcast { { i64, i64 }, i64 }* %_4 to i8*
  %10 = bitcast { { i64, i64 }, i64 }* %val to i8*
  call void @llvm.memcpy.p0i8.p0i8.i64(i8* align 8 %9, i8* align 8 %10, i64 24, i1 false)
  %11 = bitcast { { i64, i64 }, i64 }* %_4 to { i64, i64 }*
  %12 = getelementptr inbounds { i64, i64 }, { i64, i64 }* %11, i32 0, i32 0
  %13 = load i64, i64* %12, align 8
  %14 = getelementptr inbounds { i64, i64 }, { i64, i64 }* %11, i32 0, i32 1
  %15 = load i64, i64* %14, align 8, !range !5
  %16 = getelementptr inbounds { i64, i64 }, { i64, i64 }* %layout, i32 0, i32 0
  store i64 %13, i64* %16, align 8
  %17 = getelementptr inbounds { i64, i64 }, { i64, i64 }* %layout, i32 0, i32 1
  store i64 %15, i64* %17, align 8
  %18 = getelementptr inbounds { { i64, i64 }, i64 }, { { i64, i64 }, i64 }* %_4, i32 0, i32 1
  %offset = load i64, i64* %18, align 8
; call core::alloc::layout::Layout::pad_to_align
  %19 = call { i64, i64 } @_ZN4core5alloc6layout6Layout12pad_to_align17ha9f8cbee0e4e6b5cE({ i64, i64 }* align 8 dereferenceable(16) %layout)
  %_17.0 = extractvalue { i64, i64 } %19, 0
  %_17.1 = extractvalue { i64, i64 } %19, 1
  br label %bb8

bb6:                                              ; preds = %bb3
; call <core::result::Result<T,F> as core::ops::try_trait::FromResidual<core::result::Result<core::convert::Infallible,E>>>::from_residual
  %20 = call { i64, i64 } @"_ZN153_$LT$core..result..Result$LT$T$C$F$GT$$u20$as$u20$core..ops..try_trait..FromResidual$LT$core..result..Result$LT$core..convert..Infallible$C$E$GT$$GT$$GT$13from_residual17h6aac416cda15d5c1E"()
  store { i64, i64 } %20, { i64, i64 }* %0, align 8
  br label %bb7

bb7:                                              ; preds = %bb6
  br label %bb9

bb9:                                              ; preds = %bb8, %bb7
  %21 = getelementptr inbounds { i64, i64 }, { i64, i64 }* %0, i32 0, i32 0
  %22 = load i64, i64* %21, align 8
  %23 = getelementptr inbounds { i64, i64 }, { i64, i64 }* %0, i32 0, i32 1
  %24 = load i64, i64* %23, align 8
  %25 = insertvalue { i64, i64 } undef, i64 %22, 0
  %26 = insertvalue { i64, i64 } %25, i64 %24, 1
  ret { i64, i64 } %26

bb8:                                              ; preds = %bb4
  %27 = getelementptr inbounds { i64, i64 }, { i64, i64 }* %0, i32 0, i32 0
  store i64 %_17.0, i64* %27, align 8
  %28 = getelementptr inbounds { i64, i64 }, { i64, i64 }* %0, i32 0, i32 1
  store i64 %_17.1, i64* %28, align 8
  br label %bb9
}

; core::alloc::layout::Layout::repeat
; Function Attrs: inlinehint uwtable
define internal void @_ZN4core5alloc6layout6Layout6repeat17hb79aaf12c8e341c0E(%"core::result::Result<(core::alloc::layout::Layout, usize), core::alloc::layout::LayoutError>"* noalias nocapture sret(%"core::result::Result<(core::alloc::layout::Layout, usize), core::alloc::layout::LayoutError>") dereferenceable(24) %0, { i64, i64 }* align 8 dereferenceable(16) %self, i64 %n) unnamed_addr #0 {
start:
  %_21 = alloca { { i64, i64 }, i64 }, align 8
  %_11 = alloca { i64, i64 }, align 8
; call core::alloc::layout::Layout::size
  %_4 = call i64 @_ZN4core5alloc6layout6Layout4size17haaf814c3f3cf8e7cE({ i64, i64 }* align 8 dereferenceable(16) %self)
  br label %bb1

bb1:                                              ; preds = %start
; call core::alloc::layout::Layout::align
  %_8 = call i64 @_ZN4core5alloc6layout6Layout5align17hd59b187598978824E({ i64, i64 }* align 8 dereferenceable(16) %self)
  br label %bb2

bb2:                                              ; preds = %bb1
; call core::alloc::layout::Layout::padding_needed_for
  %_6 = call i64 @_ZN4core5alloc6layout6Layout18padding_needed_for17h3200f53ce47119d7E({ i64, i64 }* align 8 dereferenceable(16) %self, i64 %_8)
  br label %bb3

bb3:                                              ; preds = %bb2
  %padded_size = add i64 %_4, %_6
; call core::num::<impl usize>::checked_mul
  %1 = call { i64, i64 } @"_ZN4core3num23_$LT$impl$u20$usize$GT$11checked_mul17h59e8fffe22192b91E"(i64 %padded_size, i64 %n)
  %_13.0 = extractvalue { i64, i64 } %1, 0
  %_13.1 = extractvalue { i64, i64 } %1, 1
  br label %bb4

bb4:                                              ; preds = %bb3
; call core::option::Option<T>::ok_or
  %2 = call { i64, i64 } @"_ZN4core6option15Option$LT$T$GT$5ok_or17h7fd7a0101c09e97fE"(i64 %_13.0, i64 %_13.1)
  %_12.0 = extractvalue { i64, i64 } %2, 0
  %_12.1 = extractvalue { i64, i64 } %2, 1
  br label %bb5

bb5:                                              ; preds = %bb4
; call <core::result::Result<T,E> as core::ops::try_trait::Try>::branch
  %3 = call { i64, i64 } @"_ZN79_$LT$core..result..Result$LT$T$C$E$GT$$u20$as$u20$core..ops..try_trait..Try$GT$6branch17hef02af14e8d14464E"(i64 %_12.0, i64 %_12.1)
  store { i64, i64 } %3, { i64, i64 }* %_11, align 8
  br label %bb6

bb6:                                              ; preds = %bb5
  %4 = bitcast { i64, i64 }* %_11 to i64*
  %_17 = load i64, i64* %4, align 8, !range !4
  switch i64 %_17, label %bb8 [
    i64 0, label %bb7
    i64 1, label %bb9
  ]

bb8:                                              ; preds = %bb6
  unreachable

bb7:                                              ; preds = %bb6
  %5 = bitcast { i64, i64 }* %_11 to %"core::ops::control_flow::ControlFlow<core::result::Result<core::convert::Infallible, core::alloc::layout::LayoutError>, usize>::Continue"*
  %6 = getelementptr inbounds %"core::ops::control_flow::ControlFlow<core::result::Result<core::convert::Infallible, core::alloc::layout::LayoutError>, usize>::Continue", %"core::ops::control_flow::ControlFlow<core::result::Result<core::convert::Infallible, core::alloc::layout::LayoutError>, usize>::Continue"* %5, i32 0, i32 1
  %val = load i64, i64* %6, align 8
; call core::alloc::layout::Layout::align
  %_24 = call i64 @_ZN4core5alloc6layout6Layout5align17hd59b187598978824E({ i64, i64 }* align 8 dereferenceable(16) %self)
  br label %bb11

bb9:                                              ; preds = %bb6
; call <core::result::Result<T,F> as core::ops::try_trait::FromResidual<core::result::Result<core::convert::Infallible,E>>>::from_residual
  call void @"_ZN153_$LT$core..result..Result$LT$T$C$F$GT$$u20$as$u20$core..ops..try_trait..FromResidual$LT$core..result..Result$LT$core..convert..Infallible$C$E$GT$$GT$$GT$13from_residual17h1b76486b7b0f7a22E"(%"core::result::Result<(core::alloc::layout::Layout, usize), core::alloc::layout::LayoutError>"* noalias nocapture sret(%"core::result::Result<(core::alloc::layout::Layout, usize), core::alloc::layout::LayoutError>") dereferenceable(24) %0)
  br label %bb10

bb10:                                             ; preds = %bb9
  br label %bb13

bb13:                                             ; preds = %bb12, %bb10
  ret void

bb11:                                             ; preds = %bb7
; call core::alloc::layout::Layout::from_size_align_unchecked
  %7 = call { i64, i64 } @_ZN4core5alloc6layout6Layout25from_size_align_unchecked17hc03c2dcd594cd531E(i64 %val, i64 %_24)
  %_22.0 = extractvalue { i64, i64 } %7, 0
  %_22.1 = extractvalue { i64, i64 } %7, 1
  br label %bb12

bb12:                                             ; preds = %bb11
  %8 = bitcast { { i64, i64 }, i64 }* %_21 to { i64, i64 }*
  %9 = getelementptr inbounds { i64, i64 }, { i64, i64 }* %8, i32 0, i32 0
  store i64 %_22.0, i64* %9, align 8
  %10 = getelementptr inbounds { i64, i64 }, { i64, i64 }* %8, i32 0, i32 1
  store i64 %_22.1, i64* %10, align 8
  %11 = getelementptr inbounds { { i64, i64 }, i64 }, { { i64, i64 }, i64 }* %_21, i32 0, i32 1
  store i64 %padded_size, i64* %11, align 8
  %12 = bitcast %"core::result::Result<(core::alloc::layout::Layout, usize), core::alloc::layout::LayoutError>"* %0 to %"core::result::Result<(core::alloc::layout::Layout, usize), core::alloc::layout::LayoutError>::Ok"*
  %13 = bitcast %"core::result::Result<(core::alloc::layout::Layout, usize), core::alloc::layout::LayoutError>::Ok"* %12 to { { i64, i64 }, i64 }*
  %14 = bitcast { { i64, i64 }, i64 }* %13 to i8*
  %15 = bitcast { { i64, i64 }, i64 }* %_21 to i8*
  call void @llvm.memcpy.p0i8.p0i8.i64(i8* align 8 %14, i8* align 8 %15, i64 24, i1 false)
  br label %bb13
}

; core::alloc::layout::Layout::dangling
; Function Attrs: inlinehint uwtable
define internal nonnull i8* @_ZN4core5alloc6layout6Layout8dangling17hd2a686858ef751e4E({ i64, i64 }* align 8 dereferenceable(16) %self) unnamed_addr #0 {
start:
; call core::alloc::layout::Layout::align
  %_3 = call i64 @_ZN4core5alloc6layout6Layout5align17hd59b187598978824E({ i64, i64 }* align 8 dereferenceable(16) %self)
  br label %bb1

bb1:                                              ; preds = %start
  %_2 = inttoptr i64 %_3 to i8*
; call core::ptr::non_null::NonNull<T>::new_unchecked
  %0 = call nonnull i8* @"_ZN4core3ptr8non_null16NonNull$LT$T$GT$13new_unchecked17h52016c20d23e96b9E"(i8* %_2)
  br label %bb2

bb2:                                              ; preds = %bb1
  ret i8* %0
}

; core::slice::<impl [T]>::len
; Function Attrs: inlinehint uwtable
define internal i64 @"_ZN4core5slice29_$LT$impl$u20$$u5b$T$u5d$$GT$3len17h63f06fb47a9206dbE"([0 x i8]* nonnull align 1 %self.0, i64 %self.1) unnamed_addr #0 {
start:
  %_2 = alloca %"core::ptr::metadata::PtrRepr<[u8]>", align 8
  %0 = bitcast %"core::ptr::metadata::PtrRepr<[u8]>"* %_2 to { [0 x i8]*, i64 }*
  %1 = getelementptr inbounds { [0 x i8]*, i64 }, { [0 x i8]*, i64 }* %0, i32 0, i32 0
  store [0 x i8]* %self.0, [0 x i8]** %1, align 8
  %2 = getelementptr inbounds { [0 x i8]*, i64 }, { [0 x i8]*, i64 }* %0, i32 0, i32 1
  store i64 %self.1, i64* %2, align 8
  %3 = bitcast %"core::ptr::metadata::PtrRepr<[u8]>"* %_2 to { i8*, i64 }*
  %4 = getelementptr inbounds { i8*, i64 }, { i8*, i64 }* %3, i32 0, i32 1
  %5 = load i64, i64* %4, align 8
  ret i64 %5
}

; core::slice::<impl [T]>::as_ptr
; Function Attrs: inlinehint uwtable
define internal i8* @"_ZN4core5slice29_$LT$impl$u20$$u5b$T$u5d$$GT$6as_ptr17hb2a654970b48ff69E"([0 x i8]* nonnull align 1 %self.0, i64 %self.1) unnamed_addr #0 {
start:
  %0 = bitcast [0 x i8]* %self.0 to i8*
  ret i8* %0
}

; core::slice::raw::from_raw_parts
; Function Attrs: inlinehint uwtable
define internal { [0 x i8]*, i64 } @_ZN4core5slice3raw14from_raw_parts17h8f0e55afaf07be6aE(i8* %data, i64 %len) unnamed_addr #0 {
start:
; call core::ptr::slice_from_raw_parts
  %0 = call { [0 x i8]*, i64 } @_ZN4core3ptr20slice_from_raw_parts17h1724d3212443fe94E(i8* %data, i64 %len)
  %_3.0 = extractvalue { [0 x i8]*, i64 } %0, 0
  %_3.1 = extractvalue { [0 x i8]*, i64 } %0, 1
  br label %bb1

bb1:                                              ; preds = %start
  %1 = insertvalue { [0 x i8]*, i64 } undef, [0 x i8]* %_3.0, 0
  %2 = insertvalue { [0 x i8]*, i64 } %1, i64 %_3.1, 1
  ret { [0 x i8]*, i64 } %2
}

; core::option::Option<T>::ok_or
; Function Attrs: inlinehint uwtable
define internal { i64, i64 } @"_ZN4core6option15Option$LT$T$GT$5ok_or17h7fd7a0101c09e97fE"(i64 %0, i64 %1) unnamed_addr #0 {
start:
  %_7 = alloca i8, align 1
  %2 = alloca { i64, i64 }, align 8
  %self = alloca { i64, i64 }, align 8
  %3 = getelementptr inbounds { i64, i64 }, { i64, i64 }* %self, i32 0, i32 0
  store i64 %0, i64* %3, align 8
  %4 = getelementptr inbounds { i64, i64 }, { i64, i64 }* %self, i32 0, i32 1
  store i64 %1, i64* %4, align 8
  store i8 0, i8* %_7, align 1
  store i8 1, i8* %_7, align 1
  %5 = bitcast { i64, i64 }* %self to i64*
  %_3 = load i64, i64* %5, align 8, !range !4
  switch i64 %_3, label %bb2 [
    i64 0, label %bb1
    i64 1, label %bb3
  ]

bb2:                                              ; preds = %start
  unreachable

bb1:                                              ; preds = %start
  store i8 0, i8* %_7, align 1
  %6 = bitcast { i64, i64 }* %2 to %"core::result::Result<usize, core::alloc::layout::LayoutError>::Err"*
  %7 = getelementptr inbounds %"core::result::Result<usize, core::alloc::layout::LayoutError>::Err", %"core::result::Result<usize, core::alloc::layout::LayoutError>::Err"* %6, i32 0, i32 1
  %8 = bitcast { i64, i64 }* %2 to i64*
  store i64 1, i64* %8, align 8
  br label %bb4

bb3:                                              ; preds = %start
  %9 = bitcast { i64, i64 }* %self to %"core::option::Option<usize>::Some"*
  %10 = getelementptr inbounds %"core::option::Option<usize>::Some", %"core::option::Option<usize>::Some"* %9, i32 0, i32 1
  %v = load i64, i64* %10, align 8
  %11 = bitcast { i64, i64 }* %2 to %"core::result::Result<usize, core::alloc::layout::LayoutError>::Ok"*
  %12 = getelementptr inbounds %"core::result::Result<usize, core::alloc::layout::LayoutError>::Ok", %"core::result::Result<usize, core::alloc::layout::LayoutError>::Ok"* %11, i32 0, i32 1
  store i64 %v, i64* %12, align 8
  %13 = bitcast { i64, i64 }* %2 to i64*
  store i64 0, i64* %13, align 8
  br label %bb4

bb4:                                              ; preds = %bb1, %bb3
  %14 = load i8, i8* %_7, align 1, !range !3
  %15 = trunc i8 %14 to i1
  br i1 %15, label %bb6, label %bb5

bb5:                                              ; preds = %bb6, %bb4
  %16 = getelementptr inbounds { i64, i64 }, { i64, i64 }* %2, i32 0, i32 0
  %17 = load i64, i64* %16, align 8, !range !4
  %18 = getelementptr inbounds { i64, i64 }, { i64, i64 }* %2, i32 0, i32 1
  %19 = load i64, i64* %18, align 8
  %20 = insertvalue { i64, i64 } undef, i64 %17, 0
  %21 = insertvalue { i64, i64 } %20, i64 %19, 1
  ret { i64, i64 } %21

bb6:                                              ; preds = %bb4
  br label %bb5
}

; core::option::Option<T>::ok_or
; Function Attrs: inlinehint uwtable
define internal i8* @"_ZN4core6option15Option$LT$T$GT$5ok_or17h848a86f0df88afb7E"(i8* %0) unnamed_addr #0 {
start:
  %_7 = alloca i8, align 1
  %1 = alloca i8*, align 8
  %self = alloca i8*, align 8
  store i8* %0, i8** %self, align 8
  store i8 0, i8* %_7, align 1
  store i8 1, i8* %_7, align 1
  %2 = bitcast i8** %self to {}**
  %3 = load {}*, {}** %2, align 8
  %4 = icmp eq {}* %3, null
  %_3 = select i1 %4, i64 0, i64 1
  switch i64 %_3, label %bb2 [
    i64 0, label %bb1
    i64 1, label %bb3
  ]

bb2:                                              ; preds = %start
  unreachable

bb1:                                              ; preds = %start
  store i8 0, i8* %_7, align 1
  %5 = bitcast i8** %1 to %"core::result::Result<core::ptr::non_null::NonNull<u8>, core::alloc::AllocError>::Err"*
  %6 = bitcast %"core::result::Result<core::ptr::non_null::NonNull<u8>, core::alloc::AllocError>::Err"* %5 to %"core::alloc::AllocError"*
  %7 = bitcast i8** %1 to {}**
  store {}* null, {}** %7, align 8
  br label %bb4

bb3:                                              ; preds = %start
  %v = load i8*, i8** %self, align 8, !nonnull !2
  store i8* %v, i8** %1, align 8
  br label %bb4

bb4:                                              ; preds = %bb1, %bb3
  %8 = load i8, i8* %_7, align 1, !range !3
  %9 = trunc i8 %8 to i1
  br i1 %9, label %bb6, label %bb5

bb5:                                              ; preds = %bb6, %bb4
  %10 = load i8*, i8** %1, align 8
  ret i8* %10

bb6:                                              ; preds = %bb4
  br label %bb5
}

; core::result::Result<T,E>::unwrap
; Function Attrs: inlinehint uwtable
define internal { i64, i64 } @"_ZN4core6result19Result$LT$T$C$E$GT$6unwrap17h5fec2cd983759d5cE"(i64 %0, i64 %1, %"core::panic::location::Location"* align 8 dereferenceable(24) %2) unnamed_addr #0 personality i32 (i32, i32, i64, %"unwind::libunwind::_Unwind_Exception"*, %"unwind::libunwind::_Unwind_Context"*)* @rust_eh_personality {
start:
  %3 = alloca { i8*, i32 }, align 8
  %e = alloca %"core::alloc::layout::LayoutError", align 1
  %self = alloca { i64, i64 }, align 8
  %4 = getelementptr inbounds { i64, i64 }, { i64, i64 }* %self, i32 0, i32 0
  store i64 %0, i64* %4, align 8
  %5 = getelementptr inbounds { i64, i64 }, { i64, i64 }* %self, i32 0, i32 1
  store i64 %1, i64* %5, align 8
  %6 = getelementptr inbounds { i64, i64 }, { i64, i64 }* %self, i32 0, i32 1
  %7 = load i64, i64* %6, align 8
  %8 = icmp eq i64 %7, 0
  %_2 = select i1 %8, i64 1, i64 0
  switch i64 %_2, label %bb2 [
    i64 0, label %bb3
    i64 1, label %bb1
  ]

bb2:                                              ; preds = %start
  unreachable

bb3:                                              ; preds = %start
  %9 = getelementptr inbounds { i64, i64 }, { i64, i64 }* %self, i32 0, i32 0
  %t.0 = load i64, i64* %9, align 8
  %10 = getelementptr inbounds { i64, i64 }, { i64, i64 }* %self, i32 0, i32 1
  %t.1 = load i64, i64* %10, align 8, !range !5
  %11 = insertvalue { i64, i64 } undef, i64 %t.0, 0
  %12 = insertvalue { i64, i64 } %11, i64 %t.1, 1
  ret { i64, i64 } %12

bb1:                                              ; preds = %start
  %_6.0 = bitcast %"core::alloc::layout::LayoutError"* %e to {}*
; invoke core::result::unwrap_failed
  invoke void @_ZN4core6result13unwrap_failed17hd3218c9fc9801751E([0 x i8]* nonnull align 1 bitcast (<{ [43 x i8] }>* @alloc67 to [0 x i8]*), i64 43, {}* nonnull align 1 %_6.0, [3 x i64]* align 8 dereferenceable(24) bitcast (<{ i8*, [16 x i8], i8*, [0 x i8] }>* @vtable.1 to [3 x i64]*), %"core::panic::location::Location"* align 8 dereferenceable(24) %2) #12
          to label %unreachable unwind label %cleanup

unreachable:                                      ; preds = %bb1
  unreachable

bb4:                                              ; preds = %cleanup
  br label %bb5

cleanup:                                          ; preds = %bb1
  %13 = landingpad { i8*, i32 }
          cleanup
  %14 = extractvalue { i8*, i32 } %13, 0
  %15 = extractvalue { i8*, i32 } %13, 1
  %16 = getelementptr inbounds { i8*, i32 }, { i8*, i32 }* %3, i32 0, i32 0
  store i8* %14, i8** %16, align 8
  %17 = getelementptr inbounds { i8*, i32 }, { i8*, i32 }* %3, i32 0, i32 1
  store i32 %15, i32* %17, align 8
  br label %bb4

bb5:                                              ; preds = %bb4
  %18 = bitcast { i8*, i32 }* %3 to i8**
  %19 = load i8*, i8** %18, align 8
  %20 = getelementptr inbounds { i8*, i32 }, { i8*, i32 }* %3, i32 0, i32 1
  %21 = load i32, i32* %20, align 8
  %22 = insertvalue { i8*, i32 } undef, i8* %19, 0
  %23 = insertvalue { i8*, i32 } %22, i32 %21, 1
  resume { i8*, i32 } %23
}

; <T as core::convert::From<T>>::from
; Function Attrs: uwtable
define internal void @"_ZN50_$LT$T$u20$as$u20$core..convert..From$LT$T$GT$$GT$4from17h1ab7da4497b97d65E"() unnamed_addr #2 {
start:
  ret void
}

; <T as core::convert::From<T>>::from
; Function Attrs: uwtable
define internal void @"_ZN50_$LT$T$u20$as$u20$core..convert..From$LT$T$GT$$GT$4from17hf929ce1ada8956baE"() unnamed_addr #2 {
start:
  ret void
}

; <T as core::convert::Into<U>>::into
; Function Attrs: uwtable
define internal { i64, i64 } @"_ZN50_$LT$T$u20$as$u20$core..convert..Into$LT$U$GT$$GT$4into17h316651cbbbc3d30fE"(i64 %self.0, i64 %self.1) unnamed_addr #2 {
start:
; call <alloc::collections::TryReserveError as core::convert::From<alloc::collections::TryReserveErrorKind>>::from
  %0 = call { i64, i64 } @"_ZN122_$LT$alloc..collections..TryReserveError$u20$as$u20$core..convert..From$LT$alloc..collections..TryReserveErrorKind$GT$$GT$4from17hade20cf2a83a440dE"(i64 %self.0, i64 %self.1)
  %1 = extractvalue { i64, i64 } %0, 0
  %2 = extractvalue { i64, i64 } %0, 1
  br label %bb1

bb1:                                              ; preds = %start
  %3 = insertvalue { i64, i64 } undef, i64 %1, 0
  %4 = insertvalue { i64, i64 } %3, i64 %2, 1
  ret { i64, i64 } %4
}

; <T as core::convert::Into<U>>::into
; Function Attrs: uwtable
define internal nonnull i8* @"_ZN50_$LT$T$u20$as$u20$core..convert..Into$LT$U$GT$$GT$4into17h9a1af11e55115bb6E"(i8* nonnull %self) unnamed_addr #2 {
start:
; call <core::ptr::non_null::NonNull<T> as core::convert::From<core::ptr::unique::Unique<T>>>::from
  %0 = call nonnull i8* @"_ZN119_$LT$core..ptr..non_null..NonNull$LT$T$GT$$u20$as$u20$core..convert..From$LT$core..ptr..unique..Unique$LT$T$GT$$GT$$GT$4from17hd889341682a330a8E"(i8* nonnull %self)
  br label %bb1

bb1:                                              ; preds = %start
  ret i8* %0
}

; <T as alloc::slice::hack::ConvertVec>::to_vec
; Function Attrs: inlinehint uwtable
define internal void @"_ZN52_$LT$T$u20$as$u20$alloc..slice..hack..ConvertVec$GT$6to_vec17h77fc1dd285d3b321E"(%"alloc::vec::Vec<u8>"* noalias nocapture sret(%"alloc::vec::Vec<u8>") dereferenceable(24) %v, [0 x i8]* nonnull align 1 %s.0, i64 %s.1) unnamed_addr #0 personality i32 (i32, i32, i64, %"unwind::libunwind::_Unwind_Exception"*, %"unwind::libunwind::_Unwind_Context"*)* @rust_eh_personality {
start:
  %0 = alloca { i8*, i32 }, align 8
  %_17 = alloca i8, align 1
  store i8 0, i8* %_17, align 1
  store i8 1, i8* %_17, align 1
; invoke core::slice::<impl [T]>::len
  %_3 = invoke i64 @"_ZN4core5slice29_$LT$impl$u20$$u5b$T$u5d$$GT$3len17h63f06fb47a9206dbE"([0 x i8]* nonnull align 1 %s.0, i64 %s.1)
          to label %bb1 unwind label %cleanup

bb1:                                              ; preds = %start
  store i8 0, i8* %_17, align 1
; invoke alloc::vec::Vec<T,A>::with_capacity_in
  invoke void @"_ZN5alloc3vec16Vec$LT$T$C$A$GT$16with_capacity_in17h8c5a8531b352d0b1E"(%"alloc::vec::Vec<u8>"* noalias nocapture sret(%"alloc::vec::Vec<u8>") dereferenceable(24) %v, i64 %_3)
          to label %bb2 unwind label %cleanup

bb12:                                             ; preds = %bb9, %cleanup
  %1 = load i8, i8* %_17, align 1, !range !3
  %2 = trunc i8 %1 to i1
  br i1 %2, label %bb11, label %bb10

cleanup:                                          ; preds = %bb1, %start
  %3 = landingpad { i8*, i32 }
          cleanup
  %4 = extractvalue { i8*, i32 } %3, 0
  %5 = extractvalue { i8*, i32 } %3, 1
  %6 = getelementptr inbounds { i8*, i32 }, { i8*, i32 }* %0, i32 0, i32 0
  store i8* %4, i8** %6, align 8
  %7 = getelementptr inbounds { i8*, i32 }, { i8*, i32 }* %0, i32 0, i32 1
  store i32 %5, i32* %7, align 8
  br label %bb12

bb2:                                              ; preds = %bb1
; invoke core::slice::<impl [T]>::as_ptr
  %_7 = invoke i8* @"_ZN4core5slice29_$LT$impl$u20$$u5b$T$u5d$$GT$6as_ptr17hb2a654970b48ff69E"([0 x i8]* nonnull align 1 %s.0, i64 %s.1)
          to label %bb3 unwind label %cleanup1

bb3:                                              ; preds = %bb2
; invoke alloc::vec::Vec<T,A>::as_mut_ptr
  %_9 = invoke i8* @"_ZN5alloc3vec16Vec$LT$T$C$A$GT$10as_mut_ptr17hbe7117b7215243ecE"(%"alloc::vec::Vec<u8>"* align 8 dereferenceable(24) %v)
          to label %bb4 unwind label %cleanup1

bb9:                                              ; preds = %cleanup1
; call core::ptr::drop_in_place<alloc::vec::Vec<u8>>
  call void @"_ZN4core3ptr46drop_in_place$LT$alloc..vec..Vec$LT$u8$GT$$GT$17h8db5e84358f51ce7E"(%"alloc::vec::Vec<u8>"* %v) #13
  br label %bb12

cleanup1:                                         ; preds = %bb7, %bb6, %bb5, %bb4, %bb3, %bb2
  %8 = landingpad { i8*, i32 }
          cleanup
  %9 = extractvalue { i8*, i32 } %8, 0
  %10 = extractvalue { i8*, i32 } %8, 1
  %11 = getelementptr inbounds { i8*, i32 }, { i8*, i32 }* %0, i32 0, i32 0
  store i8* %9, i8** %11, align 8
  %12 = getelementptr inbounds { i8*, i32 }, { i8*, i32 }* %0, i32 0, i32 1
  store i32 %10, i32* %12, align 8
  br label %bb9

bb4:                                              ; preds = %bb3
; invoke core::slice::<impl [T]>::len
  %_11 = invoke i64 @"_ZN4core5slice29_$LT$impl$u20$$u5b$T$u5d$$GT$3len17h63f06fb47a9206dbE"([0 x i8]* nonnull align 1 %s.0, i64 %s.1)
          to label %bb5 unwind label %cleanup1

bb5:                                              ; preds = %bb4
; invoke core::ptr::const_ptr::<impl *const T>::copy_to_nonoverlapping
  invoke void @"_ZN4core3ptr9const_ptr33_$LT$impl$u20$$BP$const$u20$T$GT$22copy_to_nonoverlapping17h520bab71fe0d49ddE"(i8* %_7, i8* %_9, i64 %_11)
          to label %bb6 unwind label %cleanup1

bb6:                                              ; preds = %bb5
; invoke core::slice::<impl [T]>::len
  %_15 = invoke i64 @"_ZN4core5slice29_$LT$impl$u20$$u5b$T$u5d$$GT$3len17h63f06fb47a9206dbE"([0 x i8]* nonnull align 1 %s.0, i64 %s.1)
          to label %bb7 unwind label %cleanup1

bb7:                                              ; preds = %bb6
; invoke alloc::vec::Vec<T,A>::set_len
  invoke void @"_ZN5alloc3vec16Vec$LT$T$C$A$GT$7set_len17h0b89d4e48e99269eE"(%"alloc::vec::Vec<u8>"* align 8 dereferenceable(24) %v, i64 %_15)
          to label %bb8 unwind label %cleanup1

bb8:                                              ; preds = %bb7
  ret void

bb10:                                             ; preds = %bb11, %bb12
  %13 = bitcast { i8*, i32 }* %0 to i8**
  %14 = load i8*, i8** %13, align 8
  %15 = getelementptr inbounds { i8*, i32 }, { i8*, i32 }* %0, i32 0, i32 1
  %16 = load i32, i32* %15, align 8
  %17 = insertvalue { i8*, i32 } undef, i8* %14, 0
  %18 = insertvalue { i8*, i32 } %17, i32 %16, 1
  resume { i8*, i32 } %18

bb11:                                             ; preds = %bb12
  br label %bb10
}

; <() as std::process::Termination>::report
; Function Attrs: inlinehint uwtable
define internal i32 @"_ZN54_$LT$$LP$$RP$$u20$as$u20$std..process..Termination$GT$6report17h06b5be6904cb9193E"() unnamed_addr #0 {
start:
; call <std::process::ExitCode as std::process::Termination>::report
  %0 = call i32 @"_ZN68_$LT$std..process..ExitCode$u20$as$u20$std..process..Termination$GT$6report17ha006cc4285693363E"(i8 0)
  br label %bb1

bb1:                                              ; preds = %start
  ret i32 %0
}

; alloc::str::<impl alloc::borrow::ToOwned for str>::to_owned
; Function Attrs: inlinehint uwtable
define internal void @"_ZN5alloc3str56_$LT$impl$u20$alloc..borrow..ToOwned$u20$for$u20$str$GT$8to_owned17hc4348521df25768eE"(%"alloc::string::String"* noalias nocapture sret(%"alloc::string::String") dereferenceable(24) %0, [0 x i8]* nonnull align 1 %self.0, i64 %self.1) unnamed_addr #0 {
start:
  %1 = alloca { [0 x i8]*, i64 }, align 8
  %_2 = alloca %"alloc::vec::Vec<u8>", align 8
  %2 = getelementptr inbounds { [0 x i8]*, i64 }, { [0 x i8]*, i64 }* %1, i32 0, i32 0
  store [0 x i8]* %self.0, [0 x i8]** %2, align 8
  %3 = getelementptr inbounds { [0 x i8]*, i64 }, { [0 x i8]*, i64 }* %1, i32 0, i32 1
  store i64 %self.1, i64* %3, align 8
  %4 = getelementptr inbounds { [0 x i8]*, i64 }, { [0 x i8]*, i64 }* %1, i32 0, i32 0
  %5 = load [0 x i8]*, [0 x i8]** %4, align 8, !nonnull !2
  %6 = getelementptr inbounds { [0 x i8]*, i64 }, { [0 x i8]*, i64 }* %1, i32 0, i32 1
  %7 = load i64, i64* %6, align 8
  %8 = insertvalue { [0 x i8]*, i64 } undef, [0 x i8]* %5, 0
  %9 = insertvalue { [0 x i8]*, i64 } %8, i64 %7, 1
  %_4.0 = extractvalue { [0 x i8]*, i64 } %9, 0
  %_4.1 = extractvalue { [0 x i8]*, i64 } %9, 1
  br label %bb1

bb1:                                              ; preds = %start
; call alloc::slice::<impl alloc::borrow::ToOwned for [T]>::to_owned
  call void @"_ZN5alloc5slice64_$LT$impl$u20$alloc..borrow..ToOwned$u20$for$u20$$u5b$T$u5d$$GT$8to_owned17h9b240bdf8d61202aE"(%"alloc::vec::Vec<u8>"* noalias nocapture sret(%"alloc::vec::Vec<u8>") dereferenceable(24) %_2, [0 x i8]* nonnull align 1 %_4.0, i64 %_4.1)
  br label %bb2

bb2:                                              ; preds = %bb1
; call alloc::string::String::from_utf8_unchecked
  call void @_ZN5alloc6string6String19from_utf8_unchecked17hdc2ebf1a4968db8fE(%"alloc::string::String"* noalias nocapture sret(%"alloc::string::String") dereferenceable(24) %0, %"alloc::vec::Vec<u8>"* noalias nocapture dereferenceable(24) %_2)
  br label %bb3

bb3:                                              ; preds = %bb2
  ret void
}

; alloc::vec::Vec<T,A>::as_mut_ptr
; Function Attrs: inlinehint uwtable
define internal i8* @"_ZN5alloc3vec16Vec$LT$T$C$A$GT$10as_mut_ptr17hbe7117b7215243ecE"(%"alloc::vec::Vec<u8>"* align 8 dereferenceable(24) %self) unnamed_addr #0 {
start:
  %_2 = bitcast %"alloc::vec::Vec<u8>"* %self to { i8*, i64 }*
; call alloc::raw_vec::RawVec<T,A>::ptr
  %ptr = call i8* @"_ZN5alloc7raw_vec19RawVec$LT$T$C$A$GT$3ptr17hd2b96e4b4b3fdb71E"({ i8*, i64 }* align 8 dereferenceable(16) %_2)
  br label %bb1

bb1:                                              ; preds = %start
; call core::ptr::mut_ptr::<impl *mut T>::is_null
  %_5 = call zeroext i1 @"_ZN4core3ptr7mut_ptr31_$LT$impl$u20$$BP$mut$u20$T$GT$7is_null17h819ec19a7263a8d8E"(i8* %ptr)
  br label %bb2

bb2:                                              ; preds = %bb1
  %_4 = xor i1 %_5, true
  call void @llvm.assume(i1 %_4)
  br label %bb3

bb3:                                              ; preds = %bb2
  ret i8* %ptr
}

; alloc::vec::Vec<T,A>::with_capacity_in
; Function Attrs: inlinehint uwtable
define internal void @"_ZN5alloc3vec16Vec$LT$T$C$A$GT$16with_capacity_in17h8c5a8531b352d0b1E"(%"alloc::vec::Vec<u8>"* noalias nocapture sret(%"alloc::vec::Vec<u8>") dereferenceable(24) %0, i64 %capacity) unnamed_addr #0 {
start:
; call alloc::raw_vec::RawVec<T,A>::with_capacity_in
  %1 = call { i8*, i64 } @"_ZN5alloc7raw_vec19RawVec$LT$T$C$A$GT$16with_capacity_in17h12401d5fcdc2c344E"(i64 %capacity)
  %_3.0 = extractvalue { i8*, i64 } %1, 0
  %_3.1 = extractvalue { i8*, i64 } %1, 1
  br label %bb1

bb1:                                              ; preds = %start
  %2 = bitcast %"alloc::vec::Vec<u8>"* %0 to { i8*, i64 }*
  %3 = getelementptr inbounds { i8*, i64 }, { i8*, i64 }* %2, i32 0, i32 0
  store i8* %_3.0, i8** %3, align 8
  %4 = getelementptr inbounds { i8*, i64 }, { i8*, i64 }* %2, i32 0, i32 1
  store i64 %_3.1, i64* %4, align 8
  %5 = getelementptr inbounds %"alloc::vec::Vec<u8>", %"alloc::vec::Vec<u8>"* %0, i32 0, i32 1
  store i64 0, i64* %5, align 8
  ret void
}

; alloc::vec::Vec<T,A>::as_ptr
; Function Attrs: inlinehint uwtable
define internal i8* @"_ZN5alloc3vec16Vec$LT$T$C$A$GT$6as_ptr17h346a575456ab3751E"(%"alloc::vec::Vec<u8>"* align 8 dereferenceable(24) %self) unnamed_addr #0 {
start:
  %_3 = bitcast %"alloc::vec::Vec<u8>"* %self to { i8*, i64 }*
; call alloc::raw_vec::RawVec<T,A>::ptr
  %ptr = call i8* @"_ZN5alloc7raw_vec19RawVec$LT$T$C$A$GT$3ptr17hd2b96e4b4b3fdb71E"({ i8*, i64 }* align 8 dereferenceable(16) %_3)
  br label %bb1

bb1:                                              ; preds = %start
; call core::ptr::mut_ptr::<impl *mut T>::is_null
  %_6 = call zeroext i1 @"_ZN4core3ptr7mut_ptr31_$LT$impl$u20$$BP$mut$u20$T$GT$7is_null17h819ec19a7263a8d8E"(i8* %ptr)
  br label %bb2

bb2:                                              ; preds = %bb1
  %_5 = xor i1 %_6, true
  call void @llvm.assume(i1 %_5)
  br label %bb3

bb3:                                              ; preds = %bb2
  ret i8* %ptr
}

; alloc::vec::Vec<T,A>::set_len
; Function Attrs: inlinehint uwtable
define internal void @"_ZN5alloc3vec16Vec$LT$T$C$A$GT$7set_len17h0b89d4e48e99269eE"(%"alloc::vec::Vec<u8>"* align 8 dereferenceable(24) %self, i64 %new_len) unnamed_addr #0 {
start:
  %0 = getelementptr inbounds %"alloc::vec::Vec<u8>", %"alloc::vec::Vec<u8>"* %self, i32 0, i32 1
  store i64 %new_len, i64* %0, align 8
  ret void
}

; alloc::alloc::alloc_zeroed
; Function Attrs: inlinehint uwtable
define internal i8* @_ZN5alloc5alloc12alloc_zeroed17h96cd411cc674cc0eE(i64 %0, i64 %1) unnamed_addr #0 {
start:
  %layout = alloca { i64, i64 }, align 8
  %2 = getelementptr inbounds { i64, i64 }, { i64, i64 }* %layout, i32 0, i32 0
  store i64 %0, i64* %2, align 8
  %3 = getelementptr inbounds { i64, i64 }, { i64, i64 }* %layout, i32 0, i32 1
  store i64 %1, i64* %3, align 8
; call core::alloc::layout::Layout::size
  %_2 = call i64 @_ZN4core5alloc6layout6Layout4size17haaf814c3f3cf8e7cE({ i64, i64 }* align 8 dereferenceable(16) %layout)
  br label %bb1

bb1:                                              ; preds = %start
; call core::alloc::layout::Layout::align
  %_4 = call i64 @_ZN4core5alloc6layout6Layout5align17hd59b187598978824E({ i64, i64 }* align 8 dereferenceable(16) %layout)
  br label %bb2

bb2:                                              ; preds = %bb1
  %4 = call i8* @__rust_alloc_zeroed(i64 %_2, i64 %_4) #14
  br label %bb3

bb3:                                              ; preds = %bb2
  ret i8* %4
}

; alloc::alloc::alloc
; Function Attrs: inlinehint uwtable
define internal i8* @_ZN5alloc5alloc5alloc17hdda7b3d6872689aaE(i64 %0, i64 %1) unnamed_addr #0 {
start:
  %layout = alloca { i64, i64 }, align 8
  %2 = getelementptr inbounds { i64, i64 }, { i64, i64 }* %layout, i32 0, i32 0
  store i64 %0, i64* %2, align 8
  %3 = getelementptr inbounds { i64, i64 }, { i64, i64 }* %layout, i32 0, i32 1
  store i64 %1, i64* %3, align 8
; call core::alloc::layout::Layout::size
  %_2 = call i64 @_ZN4core5alloc6layout6Layout4size17haaf814c3f3cf8e7cE({ i64, i64 }* align 8 dereferenceable(16) %layout)
  br label %bb1

bb1:                                              ; preds = %start
; call core::alloc::layout::Layout::align
  %_4 = call i64 @_ZN4core5alloc6layout6Layout5align17hd59b187598978824E({ i64, i64 }* align 8 dereferenceable(16) %layout)
  br label %bb2

bb2:                                              ; preds = %bb1
  %4 = call i8* @__rust_alloc(i64 %_2, i64 %_4) #14
  br label %bb3

bb3:                                              ; preds = %bb2
  ret i8* %4
}

; alloc::alloc::Global::alloc_impl
; Function Attrs: inlinehint uwtable
define internal { i8*, i64 } @_ZN5alloc5alloc6Global10alloc_impl17h1011f579438355eaE(%"alloc::alloc::Global"* nonnull align 1 %self, i64 %0, i64 %1, i1 zeroext %zeroed) unnamed_addr #0 {
start:
  %_15 = alloca i8*, align 8
  %raw_ptr = alloca i8*, align 8
  %2 = alloca { i8*, i64 }, align 8
  %layout = alloca { i64, i64 }, align 8
  %3 = getelementptr inbounds { i64, i64 }, { i64, i64 }* %layout, i32 0, i32 0
  store i64 %0, i64* %3, align 8
  %4 = getelementptr inbounds { i64, i64 }, { i64, i64 }* %layout, i32 0, i32 1
  store i64 %1, i64* %4, align 8
; call core::alloc::layout::Layout::size
  %_4 = call i64 @_ZN4core5alloc6layout6Layout4size17haaf814c3f3cf8e7cE({ i64, i64 }* align 8 dereferenceable(16) %layout)
  br label %bb1

bb1:                                              ; preds = %start
  %5 = icmp eq i64 %_4, 0
  br i1 %5, label %bb3, label %bb2

bb3:                                              ; preds = %bb1
; call core::alloc::layout::Layout::dangling
  %_7 = call nonnull i8* @_ZN4core5alloc6layout6Layout8dangling17hd2a686858ef751e4E({ i64, i64 }* align 8 dereferenceable(16) %layout)
  br label %bb4

bb2:                                              ; preds = %bb1
  br i1 %zeroed, label %bb6, label %bb8

bb8:                                              ; preds = %bb2
  %6 = getelementptr inbounds { i64, i64 }, { i64, i64 }* %layout, i32 0, i32 0
  %_13.0 = load i64, i64* %6, align 8
  %7 = getelementptr inbounds { i64, i64 }, { i64, i64 }* %layout, i32 0, i32 1
  %_13.1 = load i64, i64* %7, align 8, !range !5
; call alloc::alloc::alloc
  %8 = call i8* @_ZN5alloc5alloc5alloc17hdda7b3d6872689aaE(i64 %_13.0, i64 %_13.1)
  store i8* %8, i8** %raw_ptr, align 8
  br label %bb9

bb6:                                              ; preds = %bb2
  %9 = getelementptr inbounds { i64, i64 }, { i64, i64 }* %layout, i32 0, i32 0
  %_12.0 = load i64, i64* %9, align 8
  %10 = getelementptr inbounds { i64, i64 }, { i64, i64 }* %layout, i32 0, i32 1
  %_12.1 = load i64, i64* %10, align 8, !range !5
; call alloc::alloc::alloc_zeroed
  %11 = call i8* @_ZN5alloc5alloc12alloc_zeroed17h96cd411cc674cc0eE(i64 %_12.0, i64 %_12.1)
  store i8* %11, i8** %raw_ptr, align 8
  br label %bb7

bb7:                                              ; preds = %bb6
  br label %bb10

bb10:                                             ; preds = %bb9, %bb7
  %_18 = load i8*, i8** %raw_ptr, align 8
; call core::ptr::non_null::NonNull<T>::new
  %_17 = call i8* @"_ZN4core3ptr8non_null16NonNull$LT$T$GT$3new17hee11c469cc875969E"(i8* %_18)
  br label %bb11

bb9:                                              ; preds = %bb8
  br label %bb10

bb11:                                             ; preds = %bb10
; call core::option::Option<T>::ok_or
  %_16 = call i8* @"_ZN4core6option15Option$LT$T$GT$5ok_or17h848a86f0df88afb7E"(i8* %_17)
  br label %bb12

bb12:                                             ; preds = %bb11
; call <core::result::Result<T,E> as core::ops::try_trait::Try>::branch
  %12 = call i8* @"_ZN79_$LT$core..result..Result$LT$T$C$E$GT$$u20$as$u20$core..ops..try_trait..Try$GT$6branch17h4f428e7fa967c4f1E"(i8* %_16)
  store i8* %12, i8** %_15, align 8
  br label %bb13

bb13:                                             ; preds = %bb12
  %13 = bitcast i8** %_15 to {}**
  %14 = load {}*, {}** %13, align 8
  %15 = icmp eq {}* %14, null
  %_20 = select i1 %15, i64 1, i64 0
  switch i64 %_20, label %bb15 [
    i64 0, label %bb14
    i64 1, label %bb16
  ]

bb15:                                             ; preds = %bb13
  unreachable

bb14:                                             ; preds = %bb13
  %val = load i8*, i8** %_15, align 8, !nonnull !2
; call core::ptr::non_null::NonNull<[T]>::slice_from_raw_parts
  %16 = call { i8*, i64 } @"_ZN4core3ptr8non_null26NonNull$LT$$u5b$T$u5d$$GT$20slice_from_raw_parts17hf1acf667bd969d63E"(i8* nonnull %val, i64 %_4)
  %_24.0 = extractvalue { i8*, i64 } %16, 0
  %_24.1 = extractvalue { i8*, i64 } %16, 1
  br label %bb18

bb16:                                             ; preds = %bb13
; call <core::result::Result<T,F> as core::ops::try_trait::FromResidual<core::result::Result<core::convert::Infallible,E>>>::from_residual
  %17 = call { i8*, i64 } @"_ZN153_$LT$core..result..Result$LT$T$C$F$GT$$u20$as$u20$core..ops..try_trait..FromResidual$LT$core..result..Result$LT$core..convert..Infallible$C$E$GT$$GT$$GT$13from_residual17h1cef078034b81983E"()
  store { i8*, i64 } %17, { i8*, i64 }* %2, align 8
  br label %bb17

bb17:                                             ; preds = %bb16
  br label %bb20

bb20:                                             ; preds = %bb19, %bb17
  %18 = getelementptr inbounds { i8*, i64 }, { i8*, i64 }* %2, i32 0, i32 0
  %19 = load i8*, i8** %18, align 8
  %20 = getelementptr inbounds { i8*, i64 }, { i8*, i64 }* %2, i32 0, i32 1
  %21 = load i64, i64* %20, align 8
  %22 = insertvalue { i8*, i64 } undef, i8* %19, 0
  %23 = insertvalue { i8*, i64 } %22, i64 %21, 1
  ret { i8*, i64 } %23

bb18:                                             ; preds = %bb14
  %24 = getelementptr inbounds { i8*, i64 }, { i8*, i64 }* %2, i32 0, i32 0
  store i8* %_24.0, i8** %24, align 8
  %25 = getelementptr inbounds { i8*, i64 }, { i8*, i64 }* %2, i32 0, i32 1
  store i64 %_24.1, i64* %25, align 8
  br label %bb19

bb19:                                             ; preds = %bb5, %bb18
  br label %bb20

bb4:                                              ; preds = %bb3
; call core::ptr::non_null::NonNull<[T]>::slice_from_raw_parts
  %26 = call { i8*, i64 } @"_ZN4core3ptr8non_null26NonNull$LT$$u5b$T$u5d$$GT$20slice_from_raw_parts17hf1acf667bd969d63E"(i8* nonnull %_7, i64 0)
  %_6.0 = extractvalue { i8*, i64 } %26, 0
  %_6.1 = extractvalue { i8*, i64 } %26, 1
  br label %bb5

bb5:                                              ; preds = %bb4
  %27 = getelementptr inbounds { i8*, i64 }, { i8*, i64 }* %2, i32 0, i32 0
  store i8* %_6.0, i8** %27, align 8
  %28 = getelementptr inbounds { i8*, i64 }, { i8*, i64 }* %2, i32 0, i32 1
  store i64 %_6.1, i64* %28, align 8
  br label %bb19
}

; alloc::alloc::dealloc
; Function Attrs: inlinehint uwtable
define internal void @_ZN5alloc5alloc7dealloc17h85cd1743156e6701E(i8* %ptr, i64 %0, i64 %1) unnamed_addr #0 {
start:
  %layout = alloca { i64, i64 }, align 8
  %2 = getelementptr inbounds { i64, i64 }, { i64, i64 }* %layout, i32 0, i32 0
  store i64 %0, i64* %2, align 8
  %3 = getelementptr inbounds { i64, i64 }, { i64, i64 }* %layout, i32 0, i32 1
  store i64 %1, i64* %3, align 8
; call core::alloc::layout::Layout::size
  %_4 = call i64 @_ZN4core5alloc6layout6Layout4size17haaf814c3f3cf8e7cE({ i64, i64 }* align 8 dereferenceable(16) %layout)
  br label %bb1

bb1:                                              ; preds = %start
; call core::alloc::layout::Layout::align
  %_6 = call i64 @_ZN4core5alloc6layout6Layout5align17hd59b187598978824E({ i64, i64 }* align 8 dereferenceable(16) %layout)
  br label %bb2

bb2:                                              ; preds = %bb1
  call void @__rust_dealloc(i8* %ptr, i64 %_4, i64 %_6) #14
  br label %bb3

bb3:                                              ; preds = %bb2
  ret void
}

; alloc::slice::<impl [T]>::to_vec
; Function Attrs: inlinehint uwtable
define internal void @"_ZN5alloc5slice29_$LT$impl$u20$$u5b$T$u5d$$GT$6to_vec17h3d70a3bc6ad6cba0E"(%"alloc::vec::Vec<u8>"* noalias nocapture sret(%"alloc::vec::Vec<u8>") dereferenceable(24) %0, [0 x i8]* nonnull align 1 %self.0, i64 %self.1) unnamed_addr #0 {
start:
; call alloc::slice::<impl [T]>::to_vec_in
  call void @"_ZN5alloc5slice29_$LT$impl$u20$$u5b$T$u5d$$GT$9to_vec_in17hacfb82acb9aad103E"(%"alloc::vec::Vec<u8>"* noalias nocapture sret(%"alloc::vec::Vec<u8>") dereferenceable(24) %0, [0 x i8]* nonnull align 1 %self.0, i64 %self.1)
  br label %bb1

bb1:                                              ; preds = %start
  ret void
}

; alloc::slice::<impl [T]>::to_vec_in
; Function Attrs: inlinehint uwtable
define internal void @"_ZN5alloc5slice29_$LT$impl$u20$$u5b$T$u5d$$GT$9to_vec_in17hacfb82acb9aad103E"(%"alloc::vec::Vec<u8>"* noalias nocapture sret(%"alloc::vec::Vec<u8>") dereferenceable(24) %0, [0 x i8]* nonnull align 1 %self.0, i64 %self.1) unnamed_addr #0 {
start:
; call alloc::slice::hack::to_vec
  call void @_ZN5alloc5slice4hack6to_vec17h3b94ed07620b611fE(%"alloc::vec::Vec<u8>"* noalias nocapture sret(%"alloc::vec::Vec<u8>") dereferenceable(24) %0, [0 x i8]* nonnull align 1 %self.0, i64 %self.1)
  br label %bb1

bb1:                                              ; preds = %start
  ret void
}

; alloc::slice::hack::to_vec
; Function Attrs: inlinehint uwtable
define internal void @_ZN5alloc5slice4hack6to_vec17h3b94ed07620b611fE(%"alloc::vec::Vec<u8>"* noalias nocapture sret(%"alloc::vec::Vec<u8>") dereferenceable(24) %0, [0 x i8]* nonnull align 1 %s.0, i64 %s.1) unnamed_addr #0 {
start:
; call <T as alloc::slice::hack::ConvertVec>::to_vec
  call void @"_ZN52_$LT$T$u20$as$u20$alloc..slice..hack..ConvertVec$GT$6to_vec17h77fc1dd285d3b321E"(%"alloc::vec::Vec<u8>"* noalias nocapture sret(%"alloc::vec::Vec<u8>") dereferenceable(24) %0, [0 x i8]* nonnull align 1 %s.0, i64 %s.1)
  br label %bb1

bb1:                                              ; preds = %start
  ret void
}

; alloc::slice::<impl alloc::borrow::ToOwned for [T]>::to_owned
; Function Attrs: uwtable
define internal void @"_ZN5alloc5slice64_$LT$impl$u20$alloc..borrow..ToOwned$u20$for$u20$$u5b$T$u5d$$GT$8to_owned17h9b240bdf8d61202aE"(%"alloc::vec::Vec<u8>"* noalias nocapture sret(%"alloc::vec::Vec<u8>") dereferenceable(24) %0, [0 x i8]* nonnull align 1 %self.0, i64 %self.1) unnamed_addr #2 {
start:
; call alloc::slice::<impl [T]>::to_vec
  call void @"_ZN5alloc5slice29_$LT$impl$u20$$u5b$T$u5d$$GT$6to_vec17h3d70a3bc6ad6cba0E"(%"alloc::vec::Vec<u8>"* noalias nocapture sret(%"alloc::vec::Vec<u8>") dereferenceable(24) %0, [0 x i8]* nonnull align 1 %self.0, i64 %self.1)
  br label %bb1

bb1:                                              ; preds = %start
  ret void
}

; alloc::string::String::from_utf8_unchecked
; Function Attrs: inlinehint uwtable
define internal void @_ZN5alloc6string6String19from_utf8_unchecked17hdc2ebf1a4968db8fE(%"alloc::string::String"* noalias nocapture sret(%"alloc::string::String") dereferenceable(24) %0, %"alloc::vec::Vec<u8>"* noalias nocapture dereferenceable(24) %bytes) unnamed_addr #0 {
start:
  %_2 = alloca %"alloc::vec::Vec<u8>", align 8
  %1 = bitcast %"alloc::vec::Vec<u8>"* %_2 to i8*
  %2 = bitcast %"alloc::vec::Vec<u8>"* %bytes to i8*
  call void @llvm.memcpy.p0i8.p0i8.i64(i8* align 8 %1, i8* align 8 %2, i64 24, i1 false)
  %3 = bitcast %"alloc::string::String"* %0 to %"alloc::vec::Vec<u8>"*
  %4 = bitcast %"alloc::vec::Vec<u8>"* %3 to i8*
  %5 = bitcast %"alloc::vec::Vec<u8>"* %_2 to i8*
  call void @llvm.memcpy.p0i8.p0i8.i64(i8* align 8 %4, i8* align 8 %5, i64 24, i1 false)
  ret void
}

; alloc::raw_vec::alloc_guard
; Function Attrs: inlinehint uwtable
define internal void @_ZN5alloc7raw_vec11alloc_guard17hb5854475369fa27dE(%"core::result::Result<(), alloc::collections::TryReserveError>"* noalias nocapture sret(%"core::result::Result<(), alloc::collections::TryReserveError>") dereferenceable(24) %0, i64 %alloc_size) unnamed_addr #0 {
start:
  %_4 = alloca { i64, i64 }, align 8
  br i1 false, label %bb1, label %bb3

bb3:                                              ; preds = %start
  %1 = bitcast %"core::result::Result<(), alloc::collections::TryReserveError>"* %0 to i64*
  store i64 0, i64* %1, align 8
  br label %bb4

bb1:                                              ; preds = %start
  %2 = getelementptr inbounds { i64, i64 }, { i64, i64 }* %_4, i32 0, i32 1
  store i64 0, i64* %2, align 8
  %3 = getelementptr inbounds { i64, i64 }, { i64, i64 }* %_4, i32 0, i32 0
  %4 = load i64, i64* %3, align 8
  %5 = getelementptr inbounds { i64, i64 }, { i64, i64 }* %_4, i32 0, i32 1
  %6 = load i64, i64* %5, align 8
; call <T as core::convert::Into<U>>::into
  %7 = call { i64, i64 } @"_ZN50_$LT$T$u20$as$u20$core..convert..Into$LT$U$GT$$GT$4into17h316651cbbbc3d30fE"(i64 %4, i64 %6)
  %_3.0 = extractvalue { i64, i64 } %7, 0
  %_3.1 = extractvalue { i64, i64 } %7, 1
  br label %bb2

bb2:                                              ; preds = %bb1
  %8 = bitcast %"core::result::Result<(), alloc::collections::TryReserveError>"* %0 to %"core::result::Result<(), alloc::collections::TryReserveError>::Err"*
  %9 = getelementptr inbounds %"core::result::Result<(), alloc::collections::TryReserveError>::Err", %"core::result::Result<(), alloc::collections::TryReserveError>::Err"* %8, i32 0, i32 1
  %10 = getelementptr inbounds { i64, i64 }, { i64, i64 }* %9, i32 0, i32 0
  store i64 %_3.0, i64* %10, align 8
  %11 = getelementptr inbounds { i64, i64 }, { i64, i64 }* %9, i32 0, i32 1
  store i64 %_3.1, i64* %11, align 8
  %12 = bitcast %"core::result::Result<(), alloc::collections::TryReserveError>"* %0 to i64*
  store i64 1, i64* %12, align 8
  br label %bb4

bb4:                                              ; preds = %bb3, %bb2
  ret void
}

; alloc::raw_vec::RawVec<T,A>::allocate_in
; Function Attrs: uwtable
define internal { i8*, i64 } @"_ZN5alloc7raw_vec19RawVec$LT$T$C$A$GT$11allocate_in17h3f4523f05c85ea52E"(i64 %capacity, i1 zeroext %0) unnamed_addr #2 personality i32 (i32, i32, i64, %"unwind::libunwind::_Unwind_Exception"*, %"unwind::libunwind::_Unwind_Context"*)* @rust_eh_personality {
start:
  %1 = alloca { i8*, i32 }, align 8
  %_33 = alloca i8, align 1
  %result = alloca { i8*, i64 }, align 8
  %_11 = alloca %"core::result::Result<(), alloc::collections::TryReserveError>", align 8
  %_7 = alloca { i64, i64 }, align 8
  %layout = alloca { i64, i64 }, align 8
  %2 = alloca { i8*, i64 }, align 8
  %alloc = alloca %"alloc::alloc::Global", align 1
  %init = alloca i8, align 1
  %3 = zext i1 %0 to i8
  store i8 %3, i8* %init, align 1
  store i8 0, i8* %_33, align 1
  store i8 1, i8* %_33, align 1
  br label %bb1

bb1:                                              ; preds = %start
  %4 = icmp eq i64 1, 0
  br i1 %4, label %bb2, label %bb4

bb31:                                             ; preds = %cleanup
  %5 = load i8, i8* %_33, align 1, !range !3
  %6 = trunc i8 %5 to i1
  br i1 %6, label %bb30, label %bb29

cleanup:                                          ; preds = %bb2, %bb26, %bb25, %bb24, %bb23, %bb22, %bb16, %bb14, %bb11, %bb9, %bb8, %bb6, %bb4
  %7 = landingpad { i8*, i32 }
          cleanup
  %8 = extractvalue { i8*, i32 } %7, 0
  %9 = extractvalue { i8*, i32 } %7, 1
  %10 = getelementptr inbounds { i8*, i32 }, { i8*, i32 }* %1, i32 0, i32 0
  store i8* %8, i8** %10, align 8
  %11 = getelementptr inbounds { i8*, i32 }, { i8*, i32 }* %1, i32 0, i32 1
  store i32 %9, i32* %11, align 8
  br label %bb31

bb2:                                              ; preds = %bb1
  store i8 0, i8* %_33, align 1
; invoke alloc::raw_vec::RawVec<T,A>::new_in
  %12 = invoke { i8*, i64 } @"_ZN5alloc7raw_vec19RawVec$LT$T$C$A$GT$6new_in17hb694fb3817741813E"()
          to label %bb3 unwind label %cleanup

bb4:                                              ; preds = %bb1
; invoke core::alloc::layout::Layout::array
  %13 = invoke { i64, i64 } @_ZN4core5alloc6layout6Layout5array17h0e77b194534bb65aE(i64 %capacity)
          to label %bb5 unwind label %cleanup

bb5:                                              ; preds = %bb4
  store { i64, i64 } %13, { i64, i64 }* %_7, align 8
  %14 = getelementptr inbounds { i64, i64 }, { i64, i64 }* %_7, i32 0, i32 1
  %15 = load i64, i64* %14, align 8
  %16 = icmp eq i64 %15, 0
  %_9 = select i1 %16, i64 1, i64 0
  switch i64 %_9, label %bb7 [
    i64 0, label %bb8
    i64 1, label %bb6
  ]

bb7:                                              ; preds = %bb5
  unreachable

bb8:                                              ; preds = %bb5
  %17 = getelementptr inbounds { i64, i64 }, { i64, i64 }* %_7, i32 0, i32 0
  %layout.0 = load i64, i64* %17, align 8
  %18 = getelementptr inbounds { i64, i64 }, { i64, i64 }* %_7, i32 0, i32 1
  %layout.1 = load i64, i64* %18, align 8, !range !5
  %19 = getelementptr inbounds { i64, i64 }, { i64, i64 }* %layout, i32 0, i32 0
  store i64 %layout.0, i64* %19, align 8
  %20 = getelementptr inbounds { i64, i64 }, { i64, i64 }* %layout, i32 0, i32 1
  store i64 %layout.1, i64* %20, align 8
; invoke core::alloc::layout::Layout::size
  %_12 = invoke i64 @_ZN4core5alloc6layout6Layout4size17haaf814c3f3cf8e7cE({ i64, i64 }* align 8 dereferenceable(16) %layout)
          to label %bb9 unwind label %cleanup

bb6:                                              ; preds = %bb5
; invoke alloc::raw_vec::capacity_overflow
  invoke void @_ZN5alloc7raw_vec17capacity_overflow17hf5e12d1029b3860bE() #12
          to label %unreachable unwind label %cleanup

unreachable:                                      ; preds = %bb11, %bb6
  unreachable

bb9:                                              ; preds = %bb8
; invoke alloc::raw_vec::alloc_guard
  invoke void @_ZN5alloc7raw_vec11alloc_guard17hb5854475369fa27dE(%"core::result::Result<(), alloc::collections::TryReserveError>"* noalias nocapture sret(%"core::result::Result<(), alloc::collections::TryReserveError>") dereferenceable(24) %_11, i64 %_12)
          to label %bb10 unwind label %cleanup

bb10:                                             ; preds = %bb9
  %21 = bitcast %"core::result::Result<(), alloc::collections::TryReserveError>"* %_11 to i64*
  %_14 = load i64, i64* %21, align 8, !range !4
  switch i64 %_14, label %bb12 [
    i64 0, label %bb13
    i64 1, label %bb11
  ]

bb12:                                             ; preds = %bb10
  unreachable

bb13:                                             ; preds = %bb10
  %22 = load i8, i8* %init, align 1, !range !3
  %23 = trunc i8 %22 to i1
  %_16 = zext i1 %23 to i64
  switch i64 %_16, label %bb15 [
    i64 0, label %bb16
    i64 1, label %bb14
  ]

bb11:                                             ; preds = %bb10
; invoke alloc::raw_vec::capacity_overflow
  invoke void @_ZN5alloc7raw_vec17capacity_overflow17hf5e12d1029b3860bE() #12
          to label %unreachable unwind label %cleanup

bb15:                                             ; preds = %bb13
  unreachable

bb16:                                             ; preds = %bb13
  %24 = getelementptr inbounds { i64, i64 }, { i64, i64 }* %layout, i32 0, i32 0
  %_18.0 = load i64, i64* %24, align 8
  %25 = getelementptr inbounds { i64, i64 }, { i64, i64 }* %layout, i32 0, i32 1
  %_18.1 = load i64, i64* %25, align 8, !range !5
; invoke <alloc::alloc::Global as core::alloc::Allocator>::allocate
  %26 = invoke { i8*, i64 } @"_ZN63_$LT$alloc..alloc..Global$u20$as$u20$core..alloc..Allocator$GT$8allocate17h566a41074f055f4bE"(%"alloc::alloc::Global"* nonnull align 1 %alloc, i64 %_18.0, i64 %_18.1)
          to label %bb17 unwind label %cleanup

bb14:                                             ; preds = %bb13
  %27 = getelementptr inbounds { i64, i64 }, { i64, i64 }* %layout, i32 0, i32 0
  %_20.0 = load i64, i64* %27, align 8
  %28 = getelementptr inbounds { i64, i64 }, { i64, i64 }* %layout, i32 0, i32 1
  %_20.1 = load i64, i64* %28, align 8, !range !5
; invoke <alloc::alloc::Global as core::alloc::Allocator>::allocate_zeroed
  %29 = invoke { i8*, i64 } @"_ZN63_$LT$alloc..alloc..Global$u20$as$u20$core..alloc..Allocator$GT$15allocate_zeroed17h35df5d95ac91f124E"(%"alloc::alloc::Global"* nonnull align 1 %alloc, i64 %_20.0, i64 %_20.1)
          to label %bb18 unwind label %cleanup

bb18:                                             ; preds = %bb14
  store { i8*, i64 } %29, { i8*, i64 }* %result, align 8
  br label %bb19

bb19:                                             ; preds = %bb17, %bb18
  %30 = bitcast { i8*, i64 }* %result to {}**
  %31 = load {}*, {}** %30, align 8
  %32 = icmp eq {}* %31, null
  %_22 = select i1 %32, i64 1, i64 0
  switch i64 %_22, label %bb21 [
    i64 0, label %bb22
    i64 1, label %bb20
  ]

bb17:                                             ; preds = %bb16
  store { i8*, i64 } %26, { i8*, i64 }* %result, align 8
  br label %bb19

bb21:                                             ; preds = %bb19
  unreachable

bb22:                                             ; preds = %bb19
  %33 = getelementptr inbounds { i8*, i64 }, { i8*, i64 }* %result, i32 0, i32 0
  %ptr.0 = load i8*, i8** %33, align 8, !nonnull !2
  %34 = getelementptr inbounds { i8*, i64 }, { i8*, i64 }* %result, i32 0, i32 1
  %ptr.1 = load i64, i64* %34, align 8
; invoke core::ptr::non_null::NonNull<T>::cast
  %_27 = invoke nonnull i8* @"_ZN4core3ptr8non_null16NonNull$LT$T$GT$4cast17h973bf534f0975ea5E"(i8* nonnull %ptr.0, i64 %ptr.1)
          to label %bb23 unwind label %cleanup

bb20:                                             ; preds = %bb19
  %35 = getelementptr inbounds { i64, i64 }, { i64, i64 }* %layout, i32 0, i32 0
  %_24.0 = load i64, i64* %35, align 8
  %36 = getelementptr inbounds { i64, i64 }, { i64, i64 }* %layout, i32 0, i32 1
  %_24.1 = load i64, i64* %36, align 8, !range !5
; call alloc::alloc::handle_alloc_error
  call void @_ZN5alloc5alloc18handle_alloc_error17hb127a5675a3a3128E(i64 %_24.0, i64 %_24.1) #15
  unreachable

bb23:                                             ; preds = %bb22
; invoke core::ptr::non_null::NonNull<T>::as_ptr
  %_26 = invoke i8* @"_ZN4core3ptr8non_null16NonNull$LT$T$GT$6as_ptr17h92acadec0a3051edE"(i8* nonnull %_27)
          to label %bb24 unwind label %cleanup

bb24:                                             ; preds = %bb23
; invoke core::ptr::unique::Unique<T>::new_unchecked
  %_25 = invoke nonnull i8* @"_ZN4core3ptr6unique15Unique$LT$T$GT$13new_unchecked17hca209d969e39900aE"(i8* %_26)
          to label %bb25 unwind label %cleanup

bb25:                                             ; preds = %bb24
; invoke core::ptr::non_null::NonNull<[T]>::len
  %_30 = invoke i64 @"_ZN4core3ptr8non_null26NonNull$LT$$u5b$T$u5d$$GT$3len17h0af19a10dc7202e4E"(i8* nonnull %ptr.0, i64 %ptr.1)
          to label %bb26 unwind label %cleanup

bb26:                                             ; preds = %bb25
; invoke alloc::raw_vec::RawVec<T,A>::capacity_from_bytes
  %_29 = invoke i64 @"_ZN5alloc7raw_vec19RawVec$LT$T$C$A$GT$19capacity_from_bytes17hdafbb867a53a2bd8E"(i64 %_30)
          to label %bb27 unwind label %cleanup

bb27:                                             ; preds = %bb26
  store i8 0, i8* %_33, align 1
  %37 = bitcast { i8*, i64 }* %2 to i8**
  store i8* %_25, i8** %37, align 8
  %38 = getelementptr inbounds { i8*, i64 }, { i8*, i64 }* %2, i32 0, i32 1
  store i64 %_29, i64* %38, align 8
  %39 = bitcast { i8*, i64 }* %2 to %"alloc::alloc::Global"*
  br label %bb28

bb28:                                             ; preds = %bb3, %bb27
  %40 = getelementptr inbounds { i8*, i64 }, { i8*, i64 }* %2, i32 0, i32 0
  %41 = load i8*, i8** %40, align 8, !nonnull !2
  %42 = getelementptr inbounds { i8*, i64 }, { i8*, i64 }* %2, i32 0, i32 1
  %43 = load i64, i64* %42, align 8
  %44 = insertvalue { i8*, i64 } undef, i8* %41, 0
  %45 = insertvalue { i8*, i64 } %44, i64 %43, 1
  ret { i8*, i64 } %45

bb3:                                              ; preds = %bb2
  store { i8*, i64 } %12, { i8*, i64 }* %2, align 8
  br label %bb28

bb29:                                             ; preds = %bb30, %bb31
  %46 = bitcast { i8*, i32 }* %1 to i8**
  %47 = load i8*, i8** %46, align 8
  %48 = getelementptr inbounds { i8*, i32 }, { i8*, i32 }* %1, i32 0, i32 1
  %49 = load i32, i32* %48, align 8
  %50 = insertvalue { i8*, i32 } undef, i8* %47, 0
  %51 = insertvalue { i8*, i32 } %50, i32 %49, 1
  resume { i8*, i32 } %51

bb30:                                             ; preds = %bb31
  br label %bb29
}

; alloc::raw_vec::RawVec<T,A>::current_memory
; Function Attrs: uwtable
define internal void @"_ZN5alloc7raw_vec19RawVec$LT$T$C$A$GT$14current_memory17he670a706c0cbb2c5E"(%"core::option::Option<(core::ptr::non_null::NonNull<u8>, core::alloc::layout::Layout)>"* noalias nocapture sret(%"core::option::Option<(core::ptr::non_null::NonNull<u8>, core::alloc::layout::Layout)>") dereferenceable(24) %0, { i8*, i64 }* align 8 dereferenceable(16) %self) unnamed_addr #2 {
start:
  %_13 = alloca { i8*, { i64, i64 } }, align 8
  %_2 = alloca i8, align 1
  br label %bb4

bb4:                                              ; preds = %start
  %1 = icmp eq i64 1, 0
  br i1 %1, label %bb1, label %bb2

bb1:                                              ; preds = %bb4
  store i8 1, i8* %_2, align 1
  br label %bb3

bb2:                                              ; preds = %bb4
  %2 = getelementptr inbounds { i8*, i64 }, { i8*, i64 }* %self, i32 0, i32 1
  %_5 = load i64, i64* %2, align 8
  %_4 = icmp eq i64 %_5, 0
  %3 = zext i1 %_4 to i8
  store i8 %3, i8* %_2, align 1
  br label %bb3

bb3:                                              ; preds = %bb1, %bb2
  %4 = load i8, i8* %_2, align 1, !range !3
  %5 = trunc i8 %4 to i1
  br i1 %5, label %bb5, label %bb6

bb6:                                              ; preds = %bb3
  br label %bb7

bb5:                                              ; preds = %bb3
  %6 = bitcast %"core::option::Option<(core::ptr::non_null::NonNull<u8>, core::alloc::layout::Layout)>"* %0 to {}**
  store {}* null, {}** %6, align 8
  br label %bb12

bb12:                                             ; preds = %bb11, %bb5
  ret void

bb7:                                              ; preds = %bb6
  br label %bb8

bb8:                                              ; preds = %bb7
  %7 = getelementptr inbounds { i8*, i64 }, { i8*, i64 }* %self, i32 0, i32 1
  %_9 = load i64, i64* %7, align 8
  %size = mul i64 1, %_9
; call core::alloc::layout::Layout::from_size_align_unchecked
  %8 = call { i64, i64 } @_ZN4core5alloc6layout6Layout25from_size_align_unchecked17hc03c2dcd594cd531E(i64 %size, i64 1)
  %layout.0 = extractvalue { i64, i64 } %8, 0
  %layout.1 = extractvalue { i64, i64 } %8, 1
  br label %bb9

bb9:                                              ; preds = %bb8
  %9 = bitcast { i8*, i64 }* %self to i8**
  %_16 = load i8*, i8** %9, align 8, !nonnull !2
; call core::ptr::unique::Unique<T>::cast
  %_15 = call nonnull i8* @"_ZN4core3ptr6unique15Unique$LT$T$GT$4cast17h63e8016e670d818aE"(i8* nonnull %_16)
  br label %bb10

bb10:                                             ; preds = %bb9
; call <T as core::convert::Into<U>>::into
  %_14 = call nonnull i8* @"_ZN50_$LT$T$u20$as$u20$core..convert..Into$LT$U$GT$$GT$4into17h9a1af11e55115bb6E"(i8* nonnull %_15)
  br label %bb11

bb11:                                             ; preds = %bb10
  %10 = bitcast { i8*, { i64, i64 } }* %_13 to i8**
  store i8* %_14, i8** %10, align 8
  %11 = getelementptr inbounds { i8*, { i64, i64 } }, { i8*, { i64, i64 } }* %_13, i32 0, i32 1
  %12 = getelementptr inbounds { i64, i64 }, { i64, i64 }* %11, i32 0, i32 0
  store i64 %layout.0, i64* %12, align 8
  %13 = getelementptr inbounds { i64, i64 }, { i64, i64 }* %11, i32 0, i32 1
  store i64 %layout.1, i64* %13, align 8
  %14 = bitcast %"core::option::Option<(core::ptr::non_null::NonNull<u8>, core::alloc::layout::Layout)>"* %0 to %"core::option::Option<(core::ptr::non_null::NonNull<u8>, core::alloc::layout::Layout)>::Some"*
  %15 = bitcast %"core::option::Option<(core::ptr::non_null::NonNull<u8>, core::alloc::layout::Layout)>::Some"* %14 to { i8*, { i64, i64 } }*
  %16 = bitcast { i8*, { i64, i64 } }* %15 to i8*
  %17 = bitcast { i8*, { i64, i64 } }* %_13 to i8*
  call void @llvm.memcpy.p0i8.p0i8.i64(i8* align 8 %16, i8* align 8 %17, i64 24, i1 false)
  br label %bb12
}

; alloc::raw_vec::RawVec<T,A>::with_capacity_in
; Function Attrs: inlinehint uwtable
define internal { i8*, i64 } @"_ZN5alloc7raw_vec19RawVec$LT$T$C$A$GT$16with_capacity_in17h12401d5fcdc2c344E"(i64 %capacity) unnamed_addr #0 {
start:
  %_4 = alloca i8, align 1
  store i8 0, i8* %_4, align 1
  %0 = load i8, i8* %_4, align 1, !range !3
  %1 = trunc i8 %0 to i1
; call alloc::raw_vec::RawVec<T,A>::allocate_in
  %2 = call { i8*, i64 } @"_ZN5alloc7raw_vec19RawVec$LT$T$C$A$GT$11allocate_in17h3f4523f05c85ea52E"(i64 %capacity, i1 zeroext %1)
  %3 = extractvalue { i8*, i64 } %2, 0
  %4 = extractvalue { i8*, i64 } %2, 1
  br label %bb1

bb1:                                              ; preds = %start
  %5 = insertvalue { i8*, i64 } undef, i8* %3, 0
  %6 = insertvalue { i8*, i64 } %5, i64 %4, 1
  ret { i8*, i64 } %6
}

; alloc::raw_vec::RawVec<T,A>::capacity_from_bytes
; Function Attrs: uwtable
define internal i64 @"_ZN5alloc7raw_vec19RawVec$LT$T$C$A$GT$19capacity_from_bytes17hdafbb867a53a2bd8E"(i64 %excess) unnamed_addr #2 {
start:
  br label %bb1

bb1:                                              ; preds = %start
  %_7 = icmp eq i64 1, 0
  %0 = call i1 @llvm.expect.i1(i1 %_7, i1 false)
  br i1 %0, label %panic, label %bb2

bb2:                                              ; preds = %bb1
  %1 = udiv i64 %excess, 1
  ret i64 %1

panic:                                            ; preds = %bb1
; call core::panicking::panic
  call void @_ZN4core9panicking5panic17h709f8bbcee9c47c1E([0 x i8]* nonnull align 1 bitcast ([25 x i8]* @str.2 to [0 x i8]*), i64 25, %"core::panic::location::Location"* align 8 dereferenceable(24) bitcast (<{ i8*, [16 x i8] }>* @alloc72 to %"core::panic::location::Location"*)) #12
  unreachable
}

; alloc::raw_vec::RawVec<T,A>::ptr
; Function Attrs: inlinehint uwtable
define internal i8* @"_ZN5alloc7raw_vec19RawVec$LT$T$C$A$GT$3ptr17hd2b96e4b4b3fdb71E"({ i8*, i64 }* align 8 dereferenceable(16) %self) unnamed_addr #0 {
start:
  %0 = bitcast { i8*, i64 }* %self to i8**
  %_2 = load i8*, i8** %0, align 8, !nonnull !2
; call core::ptr::unique::Unique<T>::as_ptr
  %1 = call i8* @"_ZN4core3ptr6unique15Unique$LT$T$GT$6as_ptr17h51f47b6a7140a787E"(i8* nonnull %_2)
  br label %bb1

bb1:                                              ; preds = %start
  ret i8* %1
}

; alloc::raw_vec::RawVec<T,A>::new_in
; Function Attrs: uwtable
define internal { i8*, i64 } @"_ZN5alloc7raw_vec19RawVec$LT$T$C$A$GT$6new_in17hb694fb3817741813E"() unnamed_addr #2 personality i32 (i32, i32, i64, %"unwind::libunwind::_Unwind_Exception"*, %"unwind::libunwind::_Unwind_Context"*)* @rust_eh_personality {
start:
  %0 = alloca { i8*, i32 }, align 8
  %1 = alloca { i8*, i64 }, align 8
; invoke core::ptr::unique::Unique<T>::dangling
  %_2 = invoke nonnull i8* @"_ZN4core3ptr6unique15Unique$LT$T$GT$8dangling17hdfced504b5ea8a4fE"()
          to label %bb1 unwind label %cleanup

bb1:                                              ; preds = %start
  %2 = bitcast { i8*, i64 }* %1 to i8**
  store i8* %_2, i8** %2, align 8
  %3 = getelementptr inbounds { i8*, i64 }, { i8*, i64 }* %1, i32 0, i32 1
  store i64 0, i64* %3, align 8
  %4 = bitcast { i8*, i64 }* %1 to %"alloc::alloc::Global"*
  %5 = getelementptr inbounds { i8*, i64 }, { i8*, i64 }* %1, i32 0, i32 0
  %6 = load i8*, i8** %5, align 8, !nonnull !2
  %7 = getelementptr inbounds { i8*, i64 }, { i8*, i64 }* %1, i32 0, i32 1
  %8 = load i64, i64* %7, align 8
  %9 = insertvalue { i8*, i64 } undef, i8* %6, 0
  %10 = insertvalue { i8*, i64 } %9, i64 %8, 1
  ret { i8*, i64 } %10

bb2:                                              ; preds = %cleanup
  br label %bb3

cleanup:                                          ; preds = %start
  %11 = landingpad { i8*, i32 }
          cleanup
  %12 = extractvalue { i8*, i32 } %11, 0
  %13 = extractvalue { i8*, i32 } %11, 1
  %14 = getelementptr inbounds { i8*, i32 }, { i8*, i32 }* %0, i32 0, i32 0
  store i8* %12, i8** %14, align 8
  %15 = getelementptr inbounds { i8*, i32 }, { i8*, i32 }* %0, i32 0, i32 1
  store i32 %13, i32* %15, align 8
  br label %bb2

bb3:                                              ; preds = %bb2
  %16 = bitcast { i8*, i32 }* %0 to i8**
  %17 = load i8*, i8** %16, align 8
  %18 = getelementptr inbounds { i8*, i32 }, { i8*, i32 }* %0, i32 0, i32 1
  %19 = load i32, i32* %18, align 8
  %20 = insertvalue { i8*, i32 } undef, i8* %17, 0
  %21 = insertvalue { i8*, i32 } %20, i32 %19, 1
  resume { i8*, i32 } %21
}

; <alloc::string::String as core::fmt::Display>::fmt
; Function Attrs: inlinehint uwtable
define internal zeroext i1 @"_ZN60_$LT$alloc..string..String$u20$as$u20$core..fmt..Display$GT$3fmt17h5da3508f6db8b229E"(%"alloc::string::String"* align 8 dereferenceable(24) %self, %"core::fmt::Formatter"* align 8 dereferenceable(64) %f) unnamed_addr #0 {
start:
; call <alloc::string::String as core::ops::deref::Deref>::deref
  %0 = call { [0 x i8]*, i64 } @"_ZN65_$LT$alloc..string..String$u20$as$u20$core..ops..deref..Deref$GT$5deref17h20c0a5ce322b2e24E"(%"alloc::string::String"* align 8 dereferenceable(24) %self)
  %_5.0 = extractvalue { [0 x i8]*, i64 } %0, 0
  %_5.1 = extractvalue { [0 x i8]*, i64 } %0, 1
  br label %bb1

bb1:                                              ; preds = %start
; call <str as core::fmt::Display>::fmt
  %1 = call zeroext i1 @"_ZN42_$LT$str$u20$as$u20$core..fmt..Display$GT$3fmt17h825c2d3236e7c190E"([0 x i8]* nonnull align 1 %_5.0, i64 %_5.1, %"core::fmt::Formatter"* align 8 dereferenceable(64) %f)
  br label %bb2

bb2:                                              ; preds = %bb1
  ret i1 %1
}

; <alloc::alloc::Global as core::alloc::Allocator>::deallocate
; Function Attrs: inlinehint uwtable
define internal void @"_ZN63_$LT$alloc..alloc..Global$u20$as$u20$core..alloc..Allocator$GT$10deallocate17head4f19640376839E"(%"alloc::alloc::Global"* nonnull align 1 %self, i8* nonnull %ptr, i64 %0, i64 %1) unnamed_addr #0 {
start:
  %layout = alloca { i64, i64 }, align 8
  %2 = getelementptr inbounds { i64, i64 }, { i64, i64 }* %layout, i32 0, i32 0
  store i64 %0, i64* %2, align 8
  %3 = getelementptr inbounds { i64, i64 }, { i64, i64 }* %layout, i32 0, i32 1
  store i64 %1, i64* %3, align 8
; call core::alloc::layout::Layout::size
  %_4 = call i64 @_ZN4core5alloc6layout6Layout4size17haaf814c3f3cf8e7cE({ i64, i64 }* align 8 dereferenceable(16) %layout)
  br label %bb1

bb1:                                              ; preds = %start
  %4 = icmp eq i64 %_4, 0
  br i1 %4, label %bb5, label %bb2

bb5:                                              ; preds = %bb1
  br label %bb6

bb2:                                              ; preds = %bb1
; call core::ptr::non_null::NonNull<T>::as_ptr
  %_6 = call i8* @"_ZN4core3ptr8non_null16NonNull$LT$T$GT$6as_ptr17h92acadec0a3051edE"(i8* nonnull %ptr)
  br label %bb3

bb3:                                              ; preds = %bb2
  %5 = getelementptr inbounds { i64, i64 }, { i64, i64 }* %layout, i32 0, i32 0
  %_8.0 = load i64, i64* %5, align 8
  %6 = getelementptr inbounds { i64, i64 }, { i64, i64 }* %layout, i32 0, i32 1
  %_8.1 = load i64, i64* %6, align 8, !range !5
; call alloc::alloc::dealloc
  call void @_ZN5alloc5alloc7dealloc17h85cd1743156e6701E(i8* %_6, i64 %_8.0, i64 %_8.1)
  br label %bb4

bb4:                                              ; preds = %bb3
  br label %bb6

bb6:                                              ; preds = %bb5, %bb4
  ret void
}

; <alloc::alloc::Global as core::alloc::Allocator>::allocate_zeroed
; Function Attrs: inlinehint uwtable
define internal { i8*, i64 } @"_ZN63_$LT$alloc..alloc..Global$u20$as$u20$core..alloc..Allocator$GT$15allocate_zeroed17h35df5d95ac91f124E"(%"alloc::alloc::Global"* nonnull align 1 %self, i64 %layout.0, i64 %layout.1) unnamed_addr #0 {
start:
; call alloc::alloc::Global::alloc_impl
  %0 = call { i8*, i64 } @_ZN5alloc5alloc6Global10alloc_impl17h1011f579438355eaE(%"alloc::alloc::Global"* nonnull align 1 %self, i64 %layout.0, i64 %layout.1, i1 zeroext true)
  %1 = extractvalue { i8*, i64 } %0, 0
  %2 = extractvalue { i8*, i64 } %0, 1
  br label %bb1

bb1:                                              ; preds = %start
  %3 = insertvalue { i8*, i64 } undef, i8* %1, 0
  %4 = insertvalue { i8*, i64 } %3, i64 %2, 1
  ret { i8*, i64 } %4
}

; <alloc::alloc::Global as core::alloc::Allocator>::allocate
; Function Attrs: inlinehint uwtable
define internal { i8*, i64 } @"_ZN63_$LT$alloc..alloc..Global$u20$as$u20$core..alloc..Allocator$GT$8allocate17h566a41074f055f4bE"(%"alloc::alloc::Global"* nonnull align 1 %self, i64 %layout.0, i64 %layout.1) unnamed_addr #0 {
start:
; call alloc::alloc::Global::alloc_impl
  %0 = call { i8*, i64 } @_ZN5alloc5alloc6Global10alloc_impl17h1011f579438355eaE(%"alloc::alloc::Global"* nonnull align 1 %self, i64 %layout.0, i64 %layout.1, i1 zeroext false)
  %1 = extractvalue { i8*, i64 } %0, 0
  %2 = extractvalue { i8*, i64 } %0, 1
  br label %bb1

bb1:                                              ; preds = %start
  %3 = insertvalue { i8*, i64 } undef, i8* %1, 0
  %4 = insertvalue { i8*, i64 } %3, i64 %2, 1
  ret { i8*, i64 } %4
}

; <alloc::string::String as core::ops::deref::Deref>::deref
; Function Attrs: inlinehint uwtable
define internal { [0 x i8]*, i64 } @"_ZN65_$LT$alloc..string..String$u20$as$u20$core..ops..deref..Deref$GT$5deref17h20c0a5ce322b2e24E"(%"alloc::string::String"* align 8 dereferenceable(24) %self) unnamed_addr #0 {
start:
  %_5 = bitcast %"alloc::string::String"* %self to %"alloc::vec::Vec<u8>"*
; call <alloc::vec::Vec<T,A> as core::ops::deref::Deref>::deref
  %0 = call { [0 x i8]*, i64 } @"_ZN72_$LT$alloc..vec..Vec$LT$T$C$A$GT$$u20$as$u20$core..ops..deref..Deref$GT$5deref17hf89fe338d88d14f2E"(%"alloc::vec::Vec<u8>"* align 8 dereferenceable(24) %_5)
  %_3.0 = extractvalue { [0 x i8]*, i64 } %0, 0
  %_3.1 = extractvalue { [0 x i8]*, i64 } %0, 1
  br label %bb1

bb1:                                              ; preds = %start
; call core::str::converts::from_utf8_unchecked
  %1 = call { [0 x i8]*, i64 } @_ZN4core3str8converts19from_utf8_unchecked17h3bcb3edae7fe326dE([0 x i8]* nonnull align 1 %_3.0, i64 %_3.1)
  %2 = extractvalue { [0 x i8]*, i64 } %1, 0
  %3 = extractvalue { [0 x i8]*, i64 } %1, 1
  br label %bb2

bb2:                                              ; preds = %bb1
  %4 = insertvalue { [0 x i8]*, i64 } undef, [0 x i8]* %2, 0
  %5 = insertvalue { [0 x i8]*, i64 } %4, i64 %3, 1
  ret { [0 x i8]*, i64 } %5
}

; <std::process::ExitCode as std::process::Termination>::report
; Function Attrs: inlinehint uwtable
define internal i32 @"_ZN68_$LT$std..process..ExitCode$u20$as$u20$std..process..Termination$GT$6report17ha006cc4285693363E"(i8 %0) unnamed_addr #0 {
start:
  %self = alloca i8, align 1
  store i8 %0, i8* %self, align 1
; call std::sys::unix::process::process_common::ExitCode::as_i32
  %1 = call i32 @_ZN3std3sys4unix7process14process_common8ExitCode6as_i3217h10be1facc40ea606E(i8* align 1 dereferenceable(1) %self)
  br label %bb1

bb1:                                              ; preds = %start
  ret i32 %1
}

; <alloc::vec::Vec<T,A> as core::ops::drop::Drop>::drop
; Function Attrs: uwtable
define internal void @"_ZN70_$LT$alloc..vec..Vec$LT$T$C$A$GT$$u20$as$u20$core..ops..drop..Drop$GT$4drop17h77975616995c9b02E"(%"alloc::vec::Vec<u8>"* align 8 dereferenceable(24) %self) unnamed_addr #2 {
start:
; call alloc::vec::Vec<T,A>::as_mut_ptr
  %_3 = call i8* @"_ZN5alloc3vec16Vec$LT$T$C$A$GT$10as_mut_ptr17hbe7117b7215243ecE"(%"alloc::vec::Vec<u8>"* align 8 dereferenceable(24) %self)
  br label %bb1

bb1:                                              ; preds = %start
  %0 = getelementptr inbounds %"alloc::vec::Vec<u8>", %"alloc::vec::Vec<u8>"* %self, i32 0, i32 1
  %_5 = load i64, i64* %0, align 8
; call core::ptr::slice_from_raw_parts_mut
  %1 = call { [0 x i8]*, i64 } @_ZN4core3ptr24slice_from_raw_parts_mut17hb03ff5ebdb0d9023E(i8* %_3, i64 %_5)
  %_2.0 = extractvalue { [0 x i8]*, i64 } %1, 0
  %_2.1 = extractvalue { [0 x i8]*, i64 } %1, 1
  br label %bb2

bb2:                                              ; preds = %bb1
  br label %bb3

bb3:                                              ; preds = %bb2
  ret void
}

; <alloc::vec::Vec<T,A> as core::ops::deref::Deref>::deref
; Function Attrs: uwtable
define internal { [0 x i8]*, i64 } @"_ZN72_$LT$alloc..vec..Vec$LT$T$C$A$GT$$u20$as$u20$core..ops..deref..Deref$GT$5deref17hf89fe338d88d14f2E"(%"alloc::vec::Vec<u8>"* align 8 dereferenceable(24) %self) unnamed_addr #2 {
start:
; call alloc::vec::Vec<T,A>::as_ptr
  %_2 = call i8* @"_ZN5alloc3vec16Vec$LT$T$C$A$GT$6as_ptr17h346a575456ab3751E"(%"alloc::vec::Vec<u8>"* align 8 dereferenceable(24) %self)
  br label %bb1

bb1:                                              ; preds = %start
  %0 = getelementptr inbounds %"alloc::vec::Vec<u8>", %"alloc::vec::Vec<u8>"* %self, i32 0, i32 1
  %_4 = load i64, i64* %0, align 8
; call core::slice::raw::from_raw_parts
  %1 = call { [0 x i8]*, i64 } @_ZN4core5slice3raw14from_raw_parts17h8f0e55afaf07be6aE(i8* %_2, i64 %_4)
  %2 = extractvalue { [0 x i8]*, i64 } %1, 0
  %3 = extractvalue { [0 x i8]*, i64 } %1, 1
  br label %bb2

bb2:                                              ; preds = %bb1
  %4 = insertvalue { [0 x i8]*, i64 } undef, [0 x i8]* %2, 0
  %5 = insertvalue { [0 x i8]*, i64 } %4, i64 %3, 1
  ret { [0 x i8]*, i64 } %5
}

; <alloc::string::String as core::convert::From<&str>>::from
; Function Attrs: inlinehint uwtable
define internal void @"_ZN76_$LT$alloc..string..String$u20$as$u20$core..convert..From$LT$$RF$str$GT$$GT$4from17h96633492d5c11661E"(%"alloc::string::String"* noalias nocapture sret(%"alloc::string::String") dereferenceable(24) %0, [0 x i8]* nonnull align 1 %s.0, i64 %s.1) unnamed_addr #0 {
start:
; call alloc::str::<impl alloc::borrow::ToOwned for str>::to_owned
  call void @"_ZN5alloc3str56_$LT$impl$u20$alloc..borrow..ToOwned$u20$for$u20$str$GT$8to_owned17hc4348521df25768eE"(%"alloc::string::String"* noalias nocapture sret(%"alloc::string::String") dereferenceable(24) %0, [0 x i8]* nonnull align 1 %s.0, i64 %s.1)
  br label %bb1

bb1:                                              ; preds = %start
  ret void
}

; <alloc::raw_vec::RawVec<T,A> as core::ops::drop::Drop>::drop
; Function Attrs: uwtable
define internal void @"_ZN77_$LT$alloc..raw_vec..RawVec$LT$T$C$A$GT$$u20$as$u20$core..ops..drop..Drop$GT$4drop17ha0b76459cdd411fcE"({ i8*, i64 }* align 8 dereferenceable(16) %self) unnamed_addr #2 {
start:
  %_2 = alloca %"core::option::Option<(core::ptr::non_null::NonNull<u8>, core::alloc::layout::Layout)>", align 8
; call alloc::raw_vec::RawVec<T,A>::current_memory
  call void @"_ZN5alloc7raw_vec19RawVec$LT$T$C$A$GT$14current_memory17he670a706c0cbb2c5E"(%"core::option::Option<(core::ptr::non_null::NonNull<u8>, core::alloc::layout::Layout)>"* noalias nocapture sret(%"core::option::Option<(core::ptr::non_null::NonNull<u8>, core::alloc::layout::Layout)>") dereferenceable(24) %_2, { i8*, i64 }* align 8 dereferenceable(16) %self)
  br label %bb1

bb1:                                              ; preds = %start
  %0 = bitcast %"core::option::Option<(core::ptr::non_null::NonNull<u8>, core::alloc::layout::Layout)>"* %_2 to {}**
  %1 = load {}*, {}** %0, align 8
  %2 = icmp eq {}* %1, null
  %_4 = select i1 %2, i64 0, i64 1
  %3 = icmp eq i64 %_4, 1
  br i1 %3, label %bb2, label %bb4

bb2:                                              ; preds = %bb1
  %4 = bitcast %"core::option::Option<(core::ptr::non_null::NonNull<u8>, core::alloc::layout::Layout)>"* %_2 to %"core::option::Option<(core::ptr::non_null::NonNull<u8>, core::alloc::layout::Layout)>::Some"*
  %5 = bitcast %"core::option::Option<(core::ptr::non_null::NonNull<u8>, core::alloc::layout::Layout)>::Some"* %4 to { i8*, { i64, i64 } }*
  %6 = bitcast { i8*, { i64, i64 } }* %5 to i8**
  %ptr = load i8*, i8** %6, align 8, !nonnull !2
  %7 = bitcast %"core::option::Option<(core::ptr::non_null::NonNull<u8>, core::alloc::layout::Layout)>"* %_2 to %"core::option::Option<(core::ptr::non_null::NonNull<u8>, core::alloc::layout::Layout)>::Some"*
  %8 = bitcast %"core::option::Option<(core::ptr::non_null::NonNull<u8>, core::alloc::layout::Layout)>::Some"* %7 to { i8*, { i64, i64 } }*
  %9 = getelementptr inbounds { i8*, { i64, i64 } }, { i8*, { i64, i64 } }* %8, i32 0, i32 1
  %10 = getelementptr inbounds { i64, i64 }, { i64, i64 }* %9, i32 0, i32 0
  %layout.0 = load i64, i64* %10, align 8
  %11 = getelementptr inbounds { i64, i64 }, { i64, i64 }* %9, i32 0, i32 1
  %layout.1 = load i64, i64* %11, align 8, !range !5
  %_7 = bitcast { i8*, i64 }* %self to %"alloc::alloc::Global"*
; call <alloc::alloc::Global as core::alloc::Allocator>::deallocate
  call void @"_ZN63_$LT$alloc..alloc..Global$u20$as$u20$core..alloc..Allocator$GT$10deallocate17head4f19640376839E"(%"alloc::alloc::Global"* nonnull align 1 %_7, i8* nonnull %ptr, i64 %layout.0, i64 %layout.1)
  br label %bb3

bb4:                                              ; preds = %bb3, %bb1
  ret void

bb3:                                              ; preds = %bb2
  br label %bb4
}

; <core::result::Result<T,E> as core::ops::try_trait::Try>::branch
; Function Attrs: inlinehint uwtable
define internal void @"_ZN79_$LT$core..result..Result$LT$T$C$E$GT$$u20$as$u20$core..ops..try_trait..Try$GT$6branch17h4ed23a4b6949c308E"(%"core::ops::control_flow::ControlFlow<core::result::Result<core::convert::Infallible, core::alloc::layout::LayoutError>, (core::alloc::layout::Layout, usize)>"* noalias nocapture sret(%"core::ops::control_flow::ControlFlow<core::result::Result<core::convert::Infallible, core::alloc::layout::LayoutError>, (core::alloc::layout::Layout, usize)>") dereferenceable(24) %0, %"core::result::Result<(core::alloc::layout::Layout, usize), core::alloc::layout::LayoutError>"* noalias nocapture dereferenceable(24) %self) unnamed_addr #0 {
start:
  %_6 = alloca %"core::result::Result<core::convert::Infallible, core::alloc::layout::LayoutError>::Err", align 1
  %_4 = alloca { { i64, i64 }, i64 }, align 8
  %v = alloca { { i64, i64 }, i64 }, align 8
  %1 = getelementptr inbounds %"core::result::Result<(core::alloc::layout::Layout, usize), core::alloc::layout::LayoutError>", %"core::result::Result<(core::alloc::layout::Layout, usize), core::alloc::layout::LayoutError>"* %self, i32 0, i32 1
  %2 = load i64, i64* %1, align 8
  %3 = icmp eq i64 %2, 0
  %_2 = select i1 %3, i64 1, i64 0
  switch i64 %_2, label %bb2 [
    i64 0, label %bb3
    i64 1, label %bb1
  ]

bb2:                                              ; preds = %start
  unreachable

bb3:                                              ; preds = %start
  %4 = bitcast %"core::result::Result<(core::alloc::layout::Layout, usize), core::alloc::layout::LayoutError>"* %self to %"core::result::Result<(core::alloc::layout::Layout, usize), core::alloc::layout::LayoutError>::Ok"*
  %5 = bitcast %"core::result::Result<(core::alloc::layout::Layout, usize), core::alloc::layout::LayoutError>::Ok"* %4 to { { i64, i64 }, i64 }*
  %6 = bitcast { { i64, i64 }, i64 }* %v to i8*
  %7 = bitcast { { i64, i64 }, i64 }* %5 to i8*
  call void @llvm.memcpy.p0i8.p0i8.i64(i8* align 8 %6, i8* align 8 %7, i64 24, i1 false)
  %8 = bitcast { { i64, i64 }, i64 }* %_4 to i8*
  %9 = bitcast { { i64, i64 }, i64 }* %v to i8*
  call void @llvm.memcpy.p0i8.p0i8.i64(i8* align 8 %8, i8* align 8 %9, i64 24, i1 false)
  %10 = bitcast %"core::ops::control_flow::ControlFlow<core::result::Result<core::convert::Infallible, core::alloc::layout::LayoutError>, (core::alloc::layout::Layout, usize)>"* %0 to %"core::ops::control_flow::ControlFlow<core::result::Result<core::convert::Infallible, core::alloc::layout::LayoutError>, (core::alloc::layout::Layout, usize)>::Continue"*
  %11 = bitcast %"core::ops::control_flow::ControlFlow<core::result::Result<core::convert::Infallible, core::alloc::layout::LayoutError>, (core::alloc::layout::Layout, usize)>::Continue"* %10 to { { i64, i64 }, i64 }*
  %12 = bitcast { { i64, i64 }, i64 }* %11 to i8*
  %13 = bitcast { { i64, i64 }, i64 }* %_4 to i8*
  call void @llvm.memcpy.p0i8.p0i8.i64(i8* align 8 %12, i8* align 8 %13, i64 24, i1 false)
  br label %bb4

bb1:                                              ; preds = %start
  %14 = bitcast %"core::result::Result<core::convert::Infallible, core::alloc::layout::LayoutError>::Err"* %_6 to %"core::alloc::layout::LayoutError"*
  %15 = bitcast %"core::ops::control_flow::ControlFlow<core::result::Result<core::convert::Infallible, core::alloc::layout::LayoutError>, (core::alloc::layout::Layout, usize)>"* %0 to %"core::ops::control_flow::ControlFlow<core::result::Result<core::convert::Infallible, core::alloc::layout::LayoutError>, (core::alloc::layout::Layout, usize)>::Break"*
  %16 = bitcast %"core::ops::control_flow::ControlFlow<core::result::Result<core::convert::Infallible, core::alloc::layout::LayoutError>, (core::alloc::layout::Layout, usize)>::Break"* %15 to %"core::result::Result<core::convert::Infallible, core::alloc::layout::LayoutError>::Err"*
  %17 = getelementptr inbounds %"core::ops::control_flow::ControlFlow<core::result::Result<core::convert::Infallible, core::alloc::layout::LayoutError>, (core::alloc::layout::Layout, usize)>", %"core::ops::control_flow::ControlFlow<core::result::Result<core::convert::Infallible, core::alloc::layout::LayoutError>, (core::alloc::layout::Layout, usize)>"* %0, i32 0, i32 1
  store i64 0, i64* %17, align 8
  br label %bb4

bb4:                                              ; preds = %bb3, %bb1
  ret void
}

; <core::result::Result<T,E> as core::ops::try_trait::Try>::branch
; Function Attrs: inlinehint uwtable
define internal i8* @"_ZN79_$LT$core..result..Result$LT$T$C$E$GT$$u20$as$u20$core..ops..try_trait..Try$GT$6branch17h4f428e7fa967c4f1E"(i8* %0) unnamed_addr #0 {
start:
  %_6 = alloca %"core::result::Result<core::convert::Infallible, core::alloc::AllocError>::Err", align 1
  %1 = alloca i8*, align 8
  %self = alloca i8*, align 8
  store i8* %0, i8** %self, align 8
  %2 = bitcast i8** %self to {}**
  %3 = load {}*, {}** %2, align 8
  %4 = icmp eq {}* %3, null
  %_2 = select i1 %4, i64 1, i64 0
  switch i64 %_2, label %bb2 [
    i64 0, label %bb3
    i64 1, label %bb1
  ]

bb2:                                              ; preds = %start
  unreachable

bb3:                                              ; preds = %start
  %v = load i8*, i8** %self, align 8, !nonnull !2
  store i8* %v, i8** %1, align 8
  br label %bb4

bb1:                                              ; preds = %start
  %5 = bitcast %"core::result::Result<core::convert::Infallible, core::alloc::AllocError>::Err"* %_6 to %"core::alloc::AllocError"*
  %6 = bitcast i8** %1 to %"core::ops::control_flow::ControlFlow<core::result::Result<core::convert::Infallible, core::alloc::AllocError>, core::ptr::non_null::NonNull<u8>>::Break"*
  %7 = bitcast %"core::ops::control_flow::ControlFlow<core::result::Result<core::convert::Infallible, core::alloc::AllocError>, core::ptr::non_null::NonNull<u8>>::Break"* %6 to %"core::result::Result<core::convert::Infallible, core::alloc::AllocError>::Err"*
  %8 = bitcast i8** %1 to {}**
  store {}* null, {}** %8, align 8
  br label %bb4

bb4:                                              ; preds = %bb3, %bb1
  %9 = load i8*, i8** %1, align 8
  ret i8* %9
}

; <core::result::Result<T,E> as core::ops::try_trait::Try>::branch
; Function Attrs: inlinehint uwtable
define internal { i64, i64 } @"_ZN79_$LT$core..result..Result$LT$T$C$E$GT$$u20$as$u20$core..ops..try_trait..Try$GT$6branch17hef02af14e8d14464E"(i64 %0, i64 %1) unnamed_addr #0 {
start:
  %_6 = alloca %"core::result::Result<core::convert::Infallible, core::alloc::layout::LayoutError>::Err", align 1
  %2 = alloca { i64, i64 }, align 8
  %self = alloca { i64, i64 }, align 8
  %3 = getelementptr inbounds { i64, i64 }, { i64, i64 }* %self, i32 0, i32 0
  store i64 %0, i64* %3, align 8
  %4 = getelementptr inbounds { i64, i64 }, { i64, i64 }* %self, i32 0, i32 1
  store i64 %1, i64* %4, align 8
  %5 = bitcast { i64, i64 }* %self to i64*
  %_2 = load i64, i64* %5, align 8, !range !4
  switch i64 %_2, label %bb2 [
    i64 0, label %bb3
    i64 1, label %bb1
  ]

bb2:                                              ; preds = %start
  unreachable

bb3:                                              ; preds = %start
  %6 = bitcast { i64, i64 }* %self to %"core::result::Result<usize, core::alloc::layout::LayoutError>::Ok"*
  %7 = getelementptr inbounds %"core::result::Result<usize, core::alloc::layout::LayoutError>::Ok", %"core::result::Result<usize, core::alloc::layout::LayoutError>::Ok"* %6, i32 0, i32 1
  %v = load i64, i64* %7, align 8
  %8 = bitcast { i64, i64 }* %2 to %"core::ops::control_flow::ControlFlow<core::result::Result<core::convert::Infallible, core::alloc::layout::LayoutError>, usize>::Continue"*
  %9 = getelementptr inbounds %"core::ops::control_flow::ControlFlow<core::result::Result<core::convert::Infallible, core::alloc::layout::LayoutError>, usize>::Continue", %"core::ops::control_flow::ControlFlow<core::result::Result<core::convert::Infallible, core::alloc::layout::LayoutError>, usize>::Continue"* %8, i32 0, i32 1
  store i64 %v, i64* %9, align 8
  %10 = bitcast { i64, i64 }* %2 to i64*
  store i64 0, i64* %10, align 8
  br label %bb4

bb1:                                              ; preds = %start
  %11 = bitcast %"core::result::Result<core::convert::Infallible, core::alloc::layout::LayoutError>::Err"* %_6 to %"core::alloc::layout::LayoutError"*
  %12 = bitcast { i64, i64 }* %2 to %"core::ops::control_flow::ControlFlow<core::result::Result<core::convert::Infallible, core::alloc::layout::LayoutError>, usize>::Break"*
  %13 = getelementptr inbounds %"core::ops::control_flow::ControlFlow<core::result::Result<core::convert::Infallible, core::alloc::layout::LayoutError>, usize>::Break", %"core::ops::control_flow::ControlFlow<core::result::Result<core::convert::Infallible, core::alloc::layout::LayoutError>, usize>::Break"* %12, i32 0, i32 1
  %14 = bitcast { i64, i64 }* %2 to i64*
  store i64 1, i64* %14, align 8
  br label %bb4

bb4:                                              ; preds = %bb3, %bb1
  %15 = getelementptr inbounds { i64, i64 }, { i64, i64 }* %2, i32 0, i32 0
  %16 = load i64, i64* %15, align 8, !range !4
  %17 = getelementptr inbounds { i64, i64 }, { i64, i64 }* %2, i32 0, i32 1
  %18 = load i64, i64* %17, align 8
  %19 = insertvalue { i64, i64 } undef, i64 %16, 0
  %20 = insertvalue { i64, i64 } %19, i64 %18, 1
  ret { i64, i64 } %20
}

; main::main
; Function Attrs: uwtable
define internal void @_ZN4main4main17h5ea8adc459579547E() unnamed_addr #2 personality i32 (i32, i32, i64, %"unwind::libunwind::_Unwind_Exception"*, %"unwind::libunwind::_Unwind_Context"*)* @rust_eh_personality {
start:
  %0 = alloca { i8*, i32 }, align 8
  %_44 = alloca i32, align 4
  %_42 = alloca i32*, align 8
  %_41 = alloca [1 x { i8*, i64* }], align 8
  %_34 = alloca %"core::fmt::Arguments", align 8
  %_28 = alloca %"alloc::string::String", align 8
  %_26 = alloca i64*, align 8
  %_25 = alloca [1 x { i8*, i64* }], align 8
  %_18 = alloca %"core::fmt::Arguments", align 8
  %_12 = alloca i32, align 4
  %_10 = alloca i32*, align 8
  %_9 = alloca [1 x { i8*, i64* }], align 8
  %_2 = alloca %"core::fmt::Arguments", align 8
; call main::getInt
  %1 = call i32 @_ZN4main6getInt17h2b1d23cb4ea2dbb7E()
  store i32 %1, i32* %_12, align 4
  br label %bb1

bb1:                                              ; preds = %start
  store i32* %_12, i32** %_10, align 8
  %arg0 = load i32*, i32** %_10, align 8, !nonnull !2
; call core::fmt::ArgumentV1::new
  %2 = call { i8*, i64* } @_ZN4core3fmt10ArgumentV13new17h4712cfcff67a7cdaE(i32* align 4 dereferenceable(4) %arg0, i1 (i32*, %"core::fmt::Formatter"*)* nonnull @"_ZN4core3fmt3num3imp52_$LT$impl$u20$core..fmt..Display$u20$for$u20$u32$GT$3fmt17hf43d10d06bcec619E")
  %_14.0 = extractvalue { i8*, i64* } %2, 0
  %_14.1 = extractvalue { i8*, i64* } %2, 1
  br label %bb2

bb2:                                              ; preds = %bb1
  %3 = bitcast [1 x { i8*, i64* }]* %_9 to { i8*, i64* }*
  %4 = getelementptr inbounds { i8*, i64* }, { i8*, i64* }* %3, i32 0, i32 0
  store i8* %_14.0, i8** %4, align 8
  %5 = getelementptr inbounds { i8*, i64* }, { i8*, i64* }* %3, i32 0, i32 1
  store i64* %_14.1, i64** %5, align 8
  %_6.0 = bitcast [1 x { i8*, i64* }]* %_9 to [0 x { i8*, i64* }]*
; call core::fmt::Arguments::new_v1
  call void @_ZN4core3fmt9Arguments6new_v117hde53115203193b6dE(%"core::fmt::Arguments"* noalias nocapture sret(%"core::fmt::Arguments") dereferenceable(48) %_2, [0 x { [0 x i8]*, i64 }]* nonnull align 8 bitcast (<{ i8*, [8 x i8], i8*, [8 x i8] }>* @alloc3 to [0 x { [0 x i8]*, i64 }]*), i64 2, [0 x { i8*, i64* }]* nonnull align 8 %_6.0, i64 1)
  br label %bb3

bb3:                                              ; preds = %bb2
; call std::io::stdio::_print
  call void @_ZN3std2io5stdio6_print17h8d6f0d9dac408e3bE(%"core::fmt::Arguments"* noalias nocapture dereferenceable(48) %_2)
  br label %bb4

bb4:                                              ; preds = %bb3
; call main::getString
  call void @_ZN4main9getString17hd7ea96afcffe1308E(%"alloc::string::String"* noalias nocapture sret(%"alloc::string::String") dereferenceable(24) %_28)
  br label %bb5

bb5:                                              ; preds = %bb4
  %6 = bitcast i64** %_26 to %"alloc::string::String"**
  store %"alloc::string::String"* %_28, %"alloc::string::String"** %6, align 8
  %7 = bitcast i64** %_26 to %"alloc::string::String"**
  %arg01 = load %"alloc::string::String"*, %"alloc::string::String"** %7, align 8, !nonnull !2
; invoke core::fmt::ArgumentV1::new
  %8 = invoke { i8*, i64* } @_ZN4core3fmt10ArgumentV13new17h7b184a0dee61b13bE(%"alloc::string::String"* align 8 dereferenceable(24) %arg01, i1 (%"alloc::string::String"*, %"core::fmt::Formatter"*)* nonnull @"_ZN60_$LT$alloc..string..String$u20$as$u20$core..fmt..Display$GT$3fmt17h5da3508f6db8b229E")
          to label %bb6 unwind label %cleanup

bb6:                                              ; preds = %bb5
  %_30.0 = extractvalue { i8*, i64* } %8, 0
  %_30.1 = extractvalue { i8*, i64* } %8, 1
  %9 = bitcast [1 x { i8*, i64* }]* %_25 to { i8*, i64* }*
  %10 = getelementptr inbounds { i8*, i64* }, { i8*, i64* }* %9, i32 0, i32 0
  store i8* %_30.0, i8** %10, align 8
  %11 = getelementptr inbounds { i8*, i64* }, { i8*, i64* }* %9, i32 0, i32 1
  store i64* %_30.1, i64** %11, align 8
  %_22.0 = bitcast [1 x { i8*, i64* }]* %_25 to [0 x { i8*, i64* }]*
; invoke core::fmt::Arguments::new_v1
  invoke void @_ZN4core3fmt9Arguments6new_v117hde53115203193b6dE(%"core::fmt::Arguments"* noalias nocapture sret(%"core::fmt::Arguments") dereferenceable(48) %_18, [0 x { [0 x i8]*, i64 }]* nonnull align 8 bitcast (<{ i8*, [8 x i8], i8*, [8 x i8] }>* @alloc9 to [0 x { [0 x i8]*, i64 }]*), i64 2, [0 x { i8*, i64* }]* nonnull align 8 %_22.0, i64 1)
          to label %bb7 unwind label %cleanup

bb14:                                             ; preds = %cleanup
; call core::ptr::drop_in_place<alloc::string::String>
  call void @"_ZN4core3ptr42drop_in_place$LT$alloc..string..String$GT$17h9ef53f2db310bb6dE"(%"alloc::string::String"* %_28) #13
  br label %bb15

cleanup:                                          ; preds = %bb7, %bb6, %bb5
  %12 = landingpad { i8*, i32 }
          cleanup
  %13 = extractvalue { i8*, i32 } %12, 0
  %14 = extractvalue { i8*, i32 } %12, 1
  %15 = getelementptr inbounds { i8*, i32 }, { i8*, i32 }* %0, i32 0, i32 0
  store i8* %13, i8** %15, align 8
  %16 = getelementptr inbounds { i8*, i32 }, { i8*, i32 }* %0, i32 0, i32 1
  store i32 %14, i32* %16, align 8
  br label %bb14

bb7:                                              ; preds = %bb6
; invoke std::io::stdio::_print
  invoke void @_ZN3std2io5stdio6_print17h8d6f0d9dac408e3bE(%"core::fmt::Arguments"* noalias nocapture dereferenceable(48) %_18)
          to label %bb8 unwind label %cleanup

bb8:                                              ; preds = %bb7
; call core::ptr::drop_in_place<alloc::string::String>
  call void @"_ZN4core3ptr42drop_in_place$LT$alloc..string..String$GT$17h9ef53f2db310bb6dE"(%"alloc::string::String"* %_28)
  br label %bb9

bb15:                                             ; preds = %bb14
  %17 = bitcast { i8*, i32 }* %0 to i8**
  %18 = load i8*, i8** %17, align 8
  %19 = getelementptr inbounds { i8*, i32 }, { i8*, i32 }* %0, i32 0, i32 1
  %20 = load i32, i32* %19, align 8
  %21 = insertvalue { i8*, i32 } undef, i8* %18, 0
  %22 = insertvalue { i8*, i32 } %21, i32 %20, 1
  resume { i8*, i32 } %22

bb9:                                              ; preds = %bb8
; call main::getStruct
  %23 = call i32 @_ZN4main9getStruct17h3b8bc85318795a8eE()
  store i32 %23, i32* %_44, align 4
  br label %bb10

bb10:                                             ; preds = %bb9
  store i32* %_44, i32** %_42, align 8
  %arg02 = load i32*, i32** %_42, align 8, !nonnull !2
; call core::fmt::ArgumentV1::new
  %24 = call { i8*, i64* } @_ZN4core3fmt10ArgumentV13new17hf6a4232ad7970220E(i32* align 4 dereferenceable(4) %arg02, i1 (i32*, %"core::fmt::Formatter"*)* nonnull @"_ZN53_$LT$main..MyStruct$u20$as$u20$core..fmt..Display$GT$3fmt17h815eb861a7f2ec8bE")
  %_46.0 = extractvalue { i8*, i64* } %24, 0
  %_46.1 = extractvalue { i8*, i64* } %24, 1
  br label %bb11

bb11:                                             ; preds = %bb10
  %25 = bitcast [1 x { i8*, i64* }]* %_41 to { i8*, i64* }*
  %26 = getelementptr inbounds { i8*, i64* }, { i8*, i64* }* %25, i32 0, i32 0
  store i8* %_46.0, i8** %26, align 8
  %27 = getelementptr inbounds { i8*, i64* }, { i8*, i64* }* %25, i32 0, i32 1
  store i64* %_46.1, i64** %27, align 8
  %_38.0 = bitcast [1 x { i8*, i64* }]* %_41 to [0 x { i8*, i64* }]*
; call core::fmt::Arguments::new_v1
  call void @_ZN4core3fmt9Arguments6new_v117hde53115203193b6dE(%"core::fmt::Arguments"* noalias nocapture sret(%"core::fmt::Arguments") dereferenceable(48) %_34, [0 x { [0 x i8]*, i64 }]* nonnull align 8 bitcast (<{ i8*, [8 x i8], i8*, [8 x i8] }>* @alloc15 to [0 x { [0 x i8]*, i64 }]*), i64 2, [0 x { i8*, i64* }]* nonnull align 8 %_38.0, i64 1)
  br label %bb12

bb12:                                             ; preds = %bb11
; call std::io::stdio::_print
  call void @_ZN3std2io5stdio6_print17h8d6f0d9dac408e3bE(%"core::fmt::Arguments"* noalias nocapture dereferenceable(48) %_34)
  br label %bb13

bb13:                                             ; preds = %bb12
  ret void
}

; main::getInt
; Function Attrs: uwtable
define internal i32 @_ZN4main6getInt17h2b1d23cb4ea2dbb7E() unnamed_addr #2 {
start:
  ret i32 32
}

; main::getString
; Function Attrs: uwtable
define internal void @_ZN4main9getString17hd7ea96afcffe1308E(%"alloc::string::String"* noalias nocapture sret(%"alloc::string::String") dereferenceable(24) %0) unnamed_addr #2 {
start:
; call <alloc::string::String as core::convert::From<&str>>::from
  call void @"_ZN76_$LT$alloc..string..String$u20$as$u20$core..convert..From$LT$$RF$str$GT$$GT$4from17h96633492d5c11661E"(%"alloc::string::String"* noalias nocapture sret(%"alloc::string::String") dereferenceable(24) %0, [0 x i8]* nonnull align 1 bitcast (<{ [13 x i8] }>* @alloc73 to [0 x i8]*), i64 13)
  br label %bb1

bb1:                                              ; preds = %start
  ret void
}

; <main::MyStruct as core::fmt::Display>::fmt
; Function Attrs: uwtable
define internal zeroext i1 @"_ZN53_$LT$main..MyStruct$u20$as$u20$core..fmt..Display$GT$3fmt17h815eb861a7f2ec8bE"(i32* align 4 dereferenceable(4) %self, %"core::fmt::Formatter"* align 8 dereferenceable(64) %f) unnamed_addr #2 {
start:
  %_12 = alloca i32*, align 8
  %_11 = alloca [1 x { i8*, i64* }], align 8
  %_4 = alloca %"core::fmt::Arguments", align 8
  store i32* %self, i32** %_12, align 8
  %arg0 = load i32*, i32** %_12, align 8, !nonnull !2
; call core::fmt::ArgumentV1::new
  %0 = call { i8*, i64* } @_ZN4core3fmt10ArgumentV13new17h4712cfcff67a7cdaE(i32* align 4 dereferenceable(4) %arg0, i1 (i32*, %"core::fmt::Formatter"*)* nonnull @"_ZN4core3fmt3num3imp52_$LT$impl$u20$core..fmt..Display$u20$for$u20$u32$GT$3fmt17hf43d10d06bcec619E")
  %_15.0 = extractvalue { i8*, i64* } %0, 0
  %_15.1 = extractvalue { i8*, i64* } %0, 1
  br label %bb1

bb1:                                              ; preds = %start
  %1 = bitcast [1 x { i8*, i64* }]* %_11 to { i8*, i64* }*
  %2 = getelementptr inbounds { i8*, i64* }, { i8*, i64* }* %1, i32 0, i32 0
  store i8* %_15.0, i8** %2, align 8
  %3 = getelementptr inbounds { i8*, i64* }, { i8*, i64* }* %1, i32 0, i32 1
  store i64* %_15.1, i64** %3, align 8
  %_8.0 = bitcast [1 x { i8*, i64* }]* %_11 to [0 x { i8*, i64* }]*
; call core::fmt::Arguments::new_v1
  call void @_ZN4core3fmt9Arguments6new_v117hde53115203193b6dE(%"core::fmt::Arguments"* noalias nocapture sret(%"core::fmt::Arguments") dereferenceable(48) %_4, [0 x { [0 x i8]*, i64 }]* nonnull align 8 bitcast (<{ i8*, [8 x i8], i8*, [8 x i8] }>* @alloc32 to [0 x { [0 x i8]*, i64 }]*), i64 2, [0 x { i8*, i64* }]* nonnull align 8 %_8.0, i64 1)
  br label %bb2

bb2:                                              ; preds = %bb1
; call core::fmt::Formatter::write_fmt
  %4 = call zeroext i1 @_ZN4core3fmt9Formatter9write_fmt17h4aae46db17d59ae5E(%"core::fmt::Formatter"* align 8 dereferenceable(64) %f, %"core::fmt::Arguments"* noalias nocapture dereferenceable(48) %_4)
  br label %bb3

bb3:                                              ; preds = %bb2
  ret i1 %4
}

; main::getStruct
; Function Attrs: uwtable
define internal i32 @_ZN4main9getStruct17h3b8bc85318795a8eE() unnamed_addr #2 {
start:
  %0 = alloca i32, align 4
  store i32 32, i32* %0, align 4
  %1 = load i32, i32* %0, align 4
  ret i32 %1
}

; Function Attrs: uwtable
declare i32 @rust_eh_personality(i32, i32, i64, %"unwind::libunwind::_Unwind_Exception"*, %"unwind::libunwind::_Unwind_Context"*) unnamed_addr #2

; std::rt::lang_start_internal
; Function Attrs: uwtable
declare i64 @_ZN3std2rt19lang_start_internal17h59ad95b3bebc83b2E({}* nonnull align 1, [3 x i64]* align 8 dereferenceable(24), i64, i8**) unnamed_addr #2

; Function Attrs: argmemonly nofree nounwind willreturn
declare void @llvm.memcpy.p0i8.p0i8.i64(i8* noalias nocapture writeonly, i8* noalias nocapture readonly, i64, i1 immarg) #3

; core::panicking::panic
; Function Attrs: cold noinline noreturn uwtable
declare void @_ZN4core9panicking5panic17h709f8bbcee9c47c1E([0 x i8]* nonnull align 1, i64, %"core::panic::location::Location"* align 8 dereferenceable(24)) unnamed_addr #4

; Function Attrs: nofree nosync nounwind readnone speculatable willreturn
declare i64 @llvm.ctpop.i64(i64) #5

; Function Attrs: nofree nosync nounwind readnone willreturn
declare i1 @llvm.expect.i1(i1, i1) #6

; Function Attrs: nofree nosync nounwind readnone speculatable willreturn
declare { i64, i1 } @llvm.umul.with.overflow.i64(i64, i64) #5

; <core::alloc::layout::LayoutError as core::fmt::Debug>::fmt
; Function Attrs: uwtable
declare zeroext i1 @"_ZN69_$LT$core..alloc..layout..LayoutError$u20$as$u20$core..fmt..Debug$GT$3fmt17h29a3b85aeffb17b6E"(%"core::alloc::layout::LayoutError"* nonnull align 1, %"core::fmt::Formatter"* align 8 dereferenceable(64)) unnamed_addr #2

; core::result::unwrap_failed
; Function Attrs: cold noinline noreturn uwtable
declare void @_ZN4core6result13unwrap_failed17hd3218c9fc9801751E([0 x i8]* nonnull align 1, i64, {}* nonnull align 1, [3 x i64]* align 8 dereferenceable(24), %"core::panic::location::Location"* align 8 dereferenceable(24)) unnamed_addr #4

; Function Attrs: inaccessiblememonly nofree nosync nounwind willreturn
declare void @llvm.assume(i1 noundef) #7

; Function Attrs: nounwind uwtable
declare i8* @__rust_alloc_zeroed(i64, i64) unnamed_addr #8

; Function Attrs: nounwind uwtable
declare noalias i8* @__rust_alloc(i64, i64) unnamed_addr #8

; Function Attrs: nounwind uwtable
declare void @__rust_dealloc(i8*, i64, i64) unnamed_addr #8

; alloc::raw_vec::capacity_overflow
; Function Attrs: noreturn uwtable
declare void @_ZN5alloc7raw_vec17capacity_overflow17hf5e12d1029b3860bE() unnamed_addr #9

; alloc::alloc::handle_alloc_error
; Function Attrs: cold noreturn nounwind uwtable
declare void @_ZN5alloc5alloc18handle_alloc_error17hb127a5675a3a3128E(i64, i64) unnamed_addr #10

; <str as core::fmt::Display>::fmt
; Function Attrs: uwtable
declare zeroext i1 @"_ZN42_$LT$str$u20$as$u20$core..fmt..Display$GT$3fmt17h825c2d3236e7c190E"([0 x i8]* nonnull align 1, i64, %"core::fmt::Formatter"* align 8 dereferenceable(64)) unnamed_addr #2

; core::fmt::num::imp::<impl core::fmt::Display for u32>::fmt
; Function Attrs: uwtable
declare zeroext i1 @"_ZN4core3fmt3num3imp52_$LT$impl$u20$core..fmt..Display$u20$for$u20$u32$GT$3fmt17hf43d10d06bcec619E"(i32* align 4 dereferenceable(4), %"core::fmt::Formatter"* align 8 dereferenceable(64)) unnamed_addr #2

; std::io::stdio::_print
; Function Attrs: uwtable
declare void @_ZN3std2io5stdio6_print17h8d6f0d9dac408e3bE(%"core::fmt::Arguments"* noalias nocapture dereferenceable(48)) unnamed_addr #2

; core::fmt::Formatter::write_fmt
; Function Attrs: uwtable
declare zeroext i1 @_ZN4core3fmt9Formatter9write_fmt17h4aae46db17d59ae5E(%"core::fmt::Formatter"* align 8 dereferenceable(64), %"core::fmt::Arguments"* noalias nocapture dereferenceable(48)) unnamed_addr #2

define i32 @main(i32 %0, i8** %1) unnamed_addr #11 {
top:
  %2 = sext i32 %0 to i64
; call std::rt::lang_start
  %3 = call i64 @_ZN3std2rt10lang_start17hf5756c142256cc45E(void ()* @_ZN4main4main17h5ea8adc459579547E, i64 %2, i8** %1)
  %4 = trunc i64 %3 to i32
  ret i32 %4
}

attributes #0 = { inlinehint uwtable "frame-pointer"="all" "probe-stack"="__rust_probestack" "target-cpu"="core2" }
attributes #1 = { noinline uwtable "frame-pointer"="all" "probe-stack"="__rust_probestack" "target-cpu"="core2" }
attributes #2 = { uwtable "frame-pointer"="all" "probe-stack"="__rust_probestack" "target-cpu"="core2" }
attributes #3 = { argmemonly nofree nounwind willreturn }
attributes #4 = { cold noinline noreturn uwtable "frame-pointer"="all" "probe-stack"="__rust_probestack" "target-cpu"="core2" }
attributes #5 = { nofree nosync nounwind readnone speculatable willreturn }
attributes #6 = { nofree nosync nounwind readnone willreturn }
attributes #7 = { inaccessiblememonly nofree nosync nounwind willreturn }
attributes #8 = { nounwind uwtable "frame-pointer"="all" "probe-stack"="__rust_probestack" "target-cpu"="core2" }
attributes #9 = { noreturn uwtable "frame-pointer"="all" "probe-stack"="__rust_probestack" "target-cpu"="core2" }
attributes #10 = { cold noreturn nounwind uwtable "frame-pointer"="all" "probe-stack"="__rust_probestack" "target-cpu"="core2" }
attributes #11 = { "frame-pointer"="all" "target-cpu"="core2" }
attributes #12 = { noreturn }
attributes #13 = { noinline }
attributes #14 = { nounwind }
attributes #15 = { noreturn nounwind }

!llvm.module.flags = !{!0, !1}

!0 = !{i32 7, !"PIC Level", i32 2}
!1 = !{i32 7, !"PIE Level", i32 2}
!2 = !{}
!3 = !{i8 0, i8 2}
!4 = !{i64 0, i64 2}
!5 = !{i64 1, i64 0}
!6 = !{i32 3102169}
